---
triple:          'x86_64-apple-darwin'
binary-path:     exec
relocations:
  - { offset: 0x5C, size: 0x8, addend: 0x0, symName: __ZNSt3__18in_placeE, symObjAddr: 0x7304, symBinAddr: 0x100007D48, symSize: 0x0 }
  - { offset: 0x96, size: 0x8, addend: 0x0, symName: __ZNSt3__16ranges5__cpo9iter_moveE, symObjAddr: 0x7305, symBinAddr: 0x100007D49, symSize: 0x0 }
  - { offset: 0xF8FE, size: 0x8, addend: 0x0, symName: __ZNSt3__124__put_character_sequenceB8ne180100IcNS_11char_traitsIcEEEERNS_13basic_ostreamIT_T0_EES7_PKS4_m, symObjAddr: 0x3350, symBinAddr: 0x100003C70, symSize: 0x1F0 }
  - { offset: 0x11274, size: 0x8, addend: 0x0, symName: __ZNSt3__14findB8ne180100INS_11__wrap_iterIPKcEEcEET_S5_S5_RKT0_, symObjAddr: 0x260, symBinAddr: 0x100000B80, symSize: 0x70 }
  - { offset: 0x112DC, size: 0x8, addend: 0x0, symName: __ZNSt3__1neB8ne180100IPKcEEbRKNS_11__wrap_iterIT_EES7_, symObjAddr: 0x2D0, symBinAddr: 0x100000BF0, symSize: 0x30 }
  - { offset: 0x1131F, size: 0x8, addend: 0x0, symName: __ZNSt3__1miB8ne180100IPKcS2_EEDTmicldtfp_4baseEcldtfp0_4baseEERKNS_11__wrap_iterIT_EERKNS4_IT0_EE, symObjAddr: 0x300, symBinAddr: 0x100000C20, symSize: 0x40 }
  - { offset: 0x11B37, size: 0x8, addend: 0x0, symName: __ZNSt3__1neB8ne180100IPcEEbRKNS_11__wrap_iterIT_EES6_, symObjAddr: 0x6B0, symBinAddr: 0x100000FD0, symSize: 0x30 }
  - { offset: 0x11B7A, size: 0x8, addend: 0x0, symName: __ZNSt3__1lsB8ne180100IcNS_11char_traitsIcEENS_9allocatorIcEEEERNS_13basic_ostreamIT_T0_EES9_RKNS_12basic_stringIS6_S7_T1_EE, symObjAddr: 0x740, symBinAddr: 0x100001060, symSize: 0x50 }
  - { offset: 0x11BD2, size: 0x8, addend: 0x0, symName: __ZNSt3__14endlB8ne180100IcNS_11char_traitsIcEEEERNS_13basic_ostreamIT_T0_EES7_, symObjAddr: 0x7B0, symBinAddr: 0x1000010D0, symSize: 0x50 }
  - { offset: 0x11C12, size: 0x8, addend: 0x0, symName: __ZNSt3__1lsB8ne180100INS_11char_traitsIcEEEERNS_13basic_ostreamIcT_EES6_PKc, symObjAddr: 0xF50, symBinAddr: 0x100001870, symSize: 0x40 }
  - { offset: 0x12C35, size: 0x8, addend: 0x0, symName: __ZNSt3__17getlineB8ne180100IcNS_11char_traitsIcEENS_9allocatorIcEEEERNS_13basic_istreamIT_T0_EES9_RNS_12basic_stringIS6_S7_T1_EE, symObjAddr: 0x11D0, symBinAddr: 0x100001AF0, symSize: 0x50 }
  - { offset: 0x12C8D, size: 0x8, addend: 0x0, symName: __ZNSt3__1lsB8ne180100INS_11char_traitsIcEEEERNS_13basic_ostreamIcT_EES6_c, symObjAddr: 0x1250, symBinAddr: 0x100001B70, symSize: 0x30 }
  - { offset: 0x12D1C, size: 0x8, addend: 0x0, symName: __ZNSt3__113__rewrap_iterB8ne180100INS_11__wrap_iterIPKcEES3_NS_18__unwrap_iter_implIS4_Lb1EEEEET_S7_T0_, symObjAddr: 0x1520, symBinAddr: 0x100001E40, symSize: 0x50 }
  - { offset: 0x12D71, size: 0x8, addend: 0x0, symName: __ZNSt3__111__find_implB8ne180100IKccNS_10__identityELi0EEEPT_S4_S4_RKT0_RT1_, symObjAddr: 0x1570, symBinAddr: 0x100001E90, symSize: 0x70 }
  - { offset: 0x12DF8, size: 0x8, addend: 0x0, symName: __ZNSt3__113__unwrap_iterB8ne180100INS_11__wrap_iterIPKcEENS_18__unwrap_iter_implIS4_Lb1EEELi0EEEDTclsrT0_8__unwrapclsr3stdE7declvalIT_EEEES8_, symObjAddr: 0x15E0, symBinAddr: 0x100001F00, symSize: 0x30 }
  - { offset: 0x12E8F, size: 0x8, addend: 0x0, symName: __ZNSt3__112__to_addressB8ne180100INS_11__wrap_iterIPKcEEvEEu7__decayIDTclsr19__to_address_helperIT_EE6__callclsr3stdE7declvalIRKS5_EEEEES7_, symObjAddr: 0x1690, symBinAddr: 0x100001FB0, symSize: 0x20 }
  - { offset: 0x12F2C, size: 0x8, addend: 0x0, symName: __ZNSt3__112__to_addressB8ne180100IKcEEPT_S3_, symObjAddr: 0x1730, symBinAddr: 0x100002050, symSize: 0x10 }
  - { offset: 0x12F61, size: 0x8, addend: 0x0, symName: __ZNSt3__118__constexpr_memchrB8ne180100IKccEEPT_S3_T0_m, symObjAddr: 0x1760, symBinAddr: 0x100002080, symSize: 0x40 }
  - { offset: 0x12FD7, size: 0x8, addend: 0x0, symName: __ZNSt3__1eqB8ne180100IPKcEEbRKNS_11__wrap_iterIT_EES7_, symObjAddr: 0x17C0, symBinAddr: 0x1000020E0, symSize: 0x40 }
  - { offset: 0x1301A, size: 0x8, addend: 0x0, symName: __ZNSt3__1eqB8ne180100IPcEEbRKNS_11__wrap_iterIT_EES6_, symObjAddr: 0x1E70, symBinAddr: 0x100002790, symSize: 0x40 }
  - { offset: 0x1305D, size: 0x8, addend: 0x0, symName: __ZNSt3__118__constexpr_strlenB8ne180100EPKc, symObjAddr: 0x2130, symBinAddr: 0x100002A50, symSize: 0x20 }
  - { offset: 0x13089, size: 0x8, addend: 0x0, symName: __ZNSt3__112__to_addressB8ne180100INS_12basic_stringIcNS_11char_traitsIcEENS_9allocatorIcEEEEEEPT_S8_, symObjAddr: 0x2500, symBinAddr: 0x100002E20, symSize: 0x10 }
  - { offset: 0x130BE, size: 0x8, addend: 0x0, symName: __ZNSt3__112__destroy_atB8ne180100INS_12basic_stringIcNS_11char_traitsIcEENS_9allocatorIcEEEELi0EEEvPT_, symObjAddr: 0x2510, symBinAddr: 0x100002E30, symSize: 0x20 }
  - { offset: 0x130F5, size: 0x8, addend: 0x0, symName: __ZNSt3__119__libcpp_deallocateB8ne180100EPvmm, symObjAddr: 0x2580, symBinAddr: 0x100002EA0, symSize: 0x60 }
  - { offset: 0x1315A, size: 0x8, addend: 0x0, symName: __ZNSt3__124__is_overaligned_for_newB8ne180100Em, symObjAddr: 0x25E0, symBinAddr: 0x100002F00, symSize: 0x20 }
  - { offset: 0x13188, size: 0x8, addend: 0x0, symName: __ZNSt3__127__do_deallocate_handle_sizeB8ne180100IJSt11align_val_tEEEvPvmDpT_, symObjAddr: 0x2600, symBinAddr: 0x100002F20, symSize: 0x30 }
  - { offset: 0x131DB, size: 0x8, addend: 0x0, symName: __ZNSt3__127__do_deallocate_handle_sizeB8ne180100IJEEEvPvmDpT_, symObjAddr: 0x2630, symBinAddr: 0x100002F50, symSize: 0x20 }
  - { offset: 0x13219, size: 0x8, addend: 0x0, symName: __ZNSt3__124__libcpp_operator_deleteB8ne180100IJPvSt11align_val_tEEEvDpT_, symObjAddr: 0x2650, symBinAddr: 0x100002F70, symSize: 0x30 }
  - { offset: 0x13262, size: 0x8, addend: 0x0, symName: __ZNSt3__124__libcpp_operator_deleteB8ne180100IJPvEEEvDpT_, symObjAddr: 0x2680, symBinAddr: 0x100002FA0, symSize: 0x20 }
  - { offset: 0x13297, size: 0x8, addend: 0x0, symName: __ZNSt3__1neB8ne180100ERKNS_16__deque_iteratorIcPcRcPS1_lLl4096EEES6_, symObjAddr: 0x2BA0, symBinAddr: 0x1000034C0, symSize: 0x30 }
  - { offset: 0x132D4, size: 0x8, addend: 0x0, symName: __ZNSt3__1eqB8ne180100ERKNS_16__deque_iteratorIcPcRcPS1_lLl4096EEES6_, symObjAddr: 0x2DF0, symBinAddr: 0x100003710, symSize: 0x30 }
  - { offset: 0x13311, size: 0x8, addend: 0x0, symName: __ZNSt3__112__destroy_atB8ne180100IcLi0EEEvPT_, symObjAddr: 0x2E20, symBinAddr: 0x100003740, symSize: 0x10 }
  - { offset: 0x13348, size: 0x8, addend: 0x0, symName: __ZNSt3__112__to_addressB8ne180100IPcEEPT_S3_, symObjAddr: 0x3100, symBinAddr: 0x100003A20, symSize: 0x10 }
  - { offset: 0x1337D, size: 0x8, addend: 0x0, symName: __ZNSt3__112__destroy_atB8ne180100IPcLi0EEEvPT_, symObjAddr: 0x3110, symBinAddr: 0x100003A30, symSize: 0x10 }
  - { offset: 0x133B4, size: 0x8, addend: 0x0, symName: __ZNSt3__116__pad_and_outputB8ne180100IcNS_11char_traitsIcEEEENS_19ostreambuf_iteratorIT_T0_EES6_PKS4_S8_S8_RNS_8ios_baseES4_, symObjAddr: 0x3590, symBinAddr: 0x100003EB0, symSize: 0x220 }
  - { offset: 0x13484, size: 0x8, addend: 0x0, symName: __ZNSt3__112__to_addressB8ne180100IcEEPT_S2_, symObjAddr: 0x3970, symBinAddr: 0x100004290, symSize: 0x10 }
  - { offset: 0x134B9, size: 0x8, addend: 0x0, symName: __ZNSt3__19use_facetB8ne180100INS_5ctypeIcEEEERKT_RKNS_6localeE, symObjAddr: 0x3AC0, symBinAddr: 0x1000043E0, symSize: 0x30 }
  - { offset: 0x13986, size: 0x8, addend: 0x0, symName: __ZNSt3__17getlineB8ne180100IcNS_11char_traitsIcEENS_9allocatorIcEEEERNS_13basic_istreamIT_T0_EES9_RNS_12basic_stringIS6_S7_T1_EES6_, symObjAddr: 0x3F60, symBinAddr: 0x100004880, symSize: 0x220 }
  - { offset: 0x13C30, size: 0x8, addend: 0x0, symName: __ZNSt3__13maxB8ne180100ImEERKT_S3_S3_, symObjAddr: 0x5320, symBinAddr: 0x100005C40, symSize: 0x30 }
  - { offset: 0x140C4, size: 0x8, addend: 0x0, symName: __ZNSt3__14swapB8ne180100IPPcEENS_9enable_ifIXaasr21is_move_constructibleIT_EE5valuesr18is_move_assignableIS4_EE5valueEvE4typeERS4_S7_, symObjAddr: 0x5950, symBinAddr: 0x100006270, symSize: 0x40 }
  - { offset: 0x14115, size: 0x8, addend: 0x0, symName: __ZNSt3__14moveB8ne180100IPPcS2_EET0_T_S4_S3_, symObjAddr: 0x5A10, symBinAddr: 0x100006330, symSize: 0x40 }
  - { offset: 0x1416F, size: 0x8, addend: 0x0, symName: __ZNSt3__16__moveB8ne180100INS_17_ClassicAlgPolicyEPPcS3_S3_EENS_4pairIT0_T2_EES5_T1_S6_, symObjAddr: 0x5B10, symBinAddr: 0x100006430, symSize: 0x40 }
  - { offset: 0x141DB, size: 0x8, addend: 0x0, symName: __ZNSt3__123__dispatch_copy_or_moveB8ne180100INS_17_ClassicAlgPolicyENS_11__move_loopIS1_EENS_14__move_trivialEPPcS6_S6_EENS_4pairIT2_T4_EES8_T3_S9_, symObjAddr: 0x5B50, symBinAddr: 0x100006470, symSize: 0x40 }
  - { offset: 0x14259, size: 0x8, addend: 0x0, symName: __ZNSt3__121__unwrap_and_dispatchB8ne180100INS_10__overloadINS_11__move_loopINS_17_ClassicAlgPolicyEEENS_14__move_trivialEEEPPcS8_S8_Li0EEENS_4pairIT0_T2_EESA_T1_SB_, symObjAddr: 0x5B90, symBinAddr: 0x1000064B0, symSize: 0xB0 }
  - { offset: 0x142E8, size: 0x8, addend: 0x0, symName: __ZNSt3__114__unwrap_rangeB8ne180100IPPcS2_EEDaT_T0_, symObjAddr: 0x5C40, symBinAddr: 0x100006560, symSize: 0x40 }
  - { offset: 0x144AC, size: 0x8, addend: 0x0, symName: __ZNSt3__113__unwrap_iterB8ne180100IPPcNS_18__unwrap_iter_implIS2_Lb1EEELi0EEEDTclsrT0_8__unwrapclsr3stdE7declvalIT_EEEES6_, symObjAddr: 0x5CC0, symBinAddr: 0x1000065E0, symSize: 0x20 }
  - { offset: 0x144F0, size: 0x8, addend: 0x0, symName: __ZNSt3__19make_pairB8ne180100IPPcS2_EENS_4pairINS_18__unwrap_ref_decayIT_E4typeENS4_IT0_E4typeEEEOS5_OS8_, symObjAddr: 0x5CE0, symBinAddr: 0x100006600, symSize: 0x30 }
  - { offset: 0x1453F, size: 0x8, addend: 0x0, symName: __ZNSt3__114__rewrap_rangeB8ne180100IPPcS2_S2_EET0_S3_T1_, symObjAddr: 0x5D10, symBinAddr: 0x100006630, symSize: 0x30 }
  - { offset: 0x14594, size: 0x8, addend: 0x0, symName: __ZNSt3__113__rewrap_iterB8ne180100IPPcS2_NS_18__unwrap_iter_implIS2_Lb1EEEEET_S5_T0_, symObjAddr: 0x5D40, symBinAddr: 0x100006660, symSize: 0x40 }
  - { offset: 0x14639, size: 0x8, addend: 0x0, symName: __ZNSt3__119__copy_trivial_implB8ne180100IPcS1_EENS_4pairIPT_PT0_EES4_S4_S6_, symObjAddr: 0x5E30, symBinAddr: 0x100006750, symSize: 0x70 }
  - { offset: 0x146A1, size: 0x8, addend: 0x0, symName: __ZNSt3__119__constexpr_memmoveB8ne180100IPcS1_Li0EEEPT_S3_PT0_NS_15__element_countE, symObjAddr: 0x5EA0, symBinAddr: 0x1000067C0, symSize: 0x50 }
  - { offset: 0x1470F, size: 0x8, addend: 0x0, symName: __ZNSt3__19make_pairB8ne180100IRPPcS2_EENS_4pairINS_18__unwrap_ref_decayIT_E4typeENS5_IT0_E4typeEEEOS6_OS9_, symObjAddr: 0x5EF0, symBinAddr: 0x100006810, symSize: 0x30 }
  - { offset: 0x147B1, size: 0x8, addend: 0x0, symName: __ZNSt3__18distanceB8ne180100INS_13move_iteratorIPPcEEEENS_15iterator_traitsIT_E15difference_typeES6_S6_, symObjAddr: 0x6100, symBinAddr: 0x100006A20, symSize: 0x40 }
  - { offset: 0x147F4, size: 0x8, addend: 0x0, symName: __ZNSt3__114__construct_atB8ne180100IPcJS1_EPS1_EEPT_S4_DpOT0_, symObjAddr: 0x6270, symBinAddr: 0x100006B90, symSize: 0x30 }
  - { offset: 0x14847, size: 0x8, addend: 0x0, symName: __ZNSt3__112construct_atB8ne180100IPcJS1_EPS1_EEPT_S4_DpOT0_, symObjAddr: 0x62A0, symBinAddr: 0x100006BC0, symSize: 0x20 }
  - { offset: 0x1489A, size: 0x8, addend: 0x0, symName: __ZNSt3__110__distanceB8ne180100INS_13move_iteratorIPPcEEEENS_15iterator_traitsIT_E15difference_typeES6_S6_NS_26random_access_iterator_tagE, symObjAddr: 0x6340, symBinAddr: 0x100006C60, symSize: 0x30 }
  - { offset: 0x148E7, size: 0x8, addend: 0x0, symName: __ZNSt3__1miB8ne180100IPPcS2_EEDTmicldtfp_4baseEcldtfp0_4baseEERKNS_13move_iteratorIT_EERKNS4_IT0_EE, symObjAddr: 0x6370, symBinAddr: 0x100006C90, symSize: 0x40 }
  - { offset: 0x14936, size: 0x8, addend: 0x0, symName: __ZNSt3__114__construct_atB8ne180100IPcJRKS1_EPS1_EEPT_S6_DpOT0_, symObjAddr: 0x63E0, symBinAddr: 0x100006D00, symSize: 0x30 }
  - { offset: 0x14989, size: 0x8, addend: 0x0, symName: __ZNSt3__112construct_atB8ne180100IPcJRKS1_EPS1_EEPT_S6_DpOT0_, symObjAddr: 0x6410, symBinAddr: 0x100006D30, symSize: 0x20 }
  - { offset: 0x149DC, size: 0x8, addend: 0x0, symName: __ZNSt3__117__libcpp_allocateB8ne180100Emm, symObjAddr: 0x64C0, symBinAddr: 0x100006DE0, symSize: 0x60 }
  - { offset: 0x14A36, size: 0x8, addend: 0x0, symName: __ZNSt3__121__libcpp_operator_newB8ne180100IJmSt11align_val_tEEEPvDpT_, symObjAddr: 0x6520, symBinAddr: 0x100006E40, symSize: 0x30 }
  - { offset: 0x14A83, size: 0x8, addend: 0x0, symName: __ZNSt3__121__libcpp_operator_newB8ne180100IJmEEEPvDpT_, symObjAddr: 0x6550, symBinAddr: 0x100006E70, symSize: 0x20 }
  - { offset: 0x14ABC, size: 0x8, addend: 0x0, symName: __ZNSt3__113move_backwardB8ne180100IPPcS2_EET0_T_S4_S3_, symObjAddr: 0x6570, symBinAddr: 0x100006E90, symSize: 0x40 }
  - { offset: 0x14B16, size: 0x8, addend: 0x0, symName: __ZNSt3__115__move_backwardB8ne180100INS_17_ClassicAlgPolicyEPPcS3_S3_EENS_4pairIT0_T2_EES5_T1_S6_, symObjAddr: 0x65B0, symBinAddr: 0x100006ED0, symSize: 0x40 }
  - { offset: 0x14B82, size: 0x8, addend: 0x0, symName: __ZNSt3__123__dispatch_copy_or_moveB8ne180100INS_17_ClassicAlgPolicyENS_20__move_backward_loopIS1_EENS_23__move_backward_trivialEPPcS6_S6_EENS_4pairIT2_T4_EES8_T3_S9_, symObjAddr: 0x65F0, symBinAddr: 0x100006F10, symSize: 0x40 }
  - { offset: 0x14C00, size: 0x8, addend: 0x0, symName: __ZNSt3__121__unwrap_and_dispatchB8ne180100INS_10__overloadINS_20__move_backward_loopINS_17_ClassicAlgPolicyEEENS_23__move_backward_trivialEEEPPcS8_S8_Li0EEENS_4pairIT0_T2_EESA_T1_SB_, symObjAddr: 0x6630, symBinAddr: 0x100006F50, symSize: 0xB0 }
  - { offset: 0x14CD5, size: 0x8, addend: 0x0, symName: __ZNSt3__128__copy_backward_trivial_implB8ne180100IPcS1_EENS_4pairIPT_PT0_EES4_S4_S6_, symObjAddr: 0x6720, symBinAddr: 0x100007040, symSize: 0x70 }
  - { offset: 0x14D3D, size: 0x8, addend: 0x0, symName: __ZNSt3__19make_pairB8ne180100IRPPcS3_EENS_4pairINS_18__unwrap_ref_decayIT_E4typeENS5_IT0_E4typeEEEOS6_OS9_, symObjAddr: 0x6790, symBinAddr: 0x1000070B0, symSize: 0x30 }
  - { offset: 0x14D8C, size: 0x8, addend: 0x0, symName: __ZNSt3__13maxB8ne180100ImNS_6__lessIvvEEEERKT_S5_S5_T0_, symObjAddr: 0x6820, symBinAddr: 0x100007140, symSize: 0x50 }
  - { offset: 0x14E2B, size: 0x8, addend: 0x0, symName: __ZNSt3__119__allocate_at_leastB8ne180100INS_9allocatorIPcEEEENS_19__allocation_resultINS_16allocator_traitsIT_E7pointerEEERS6_m, symObjAddr: 0x69A0, symBinAddr: 0x1000072C0, symSize: 0x40 }
  - { offset: 0x14E6E, size: 0x8, addend: 0x0, symName: __ZNSt3__114__construct_atB8ne180100IcJcEPcEEPT_S3_DpOT0_, symObjAddr: 0x6F30, symBinAddr: 0x100007850, symSize: 0x30 }
  - { offset: 0x14EC1, size: 0x8, addend: 0x0, symName: __ZNSt3__112construct_atB8ne180100IcJcEPcEEPT_S3_DpOT0_, symObjAddr: 0x6F60, symBinAddr: 0x100007880, symSize: 0x1A }
  - { offset: 0x15E6B, size: 0x8, addend: 0x0, symName: __ZSt28__throw_bad_array_new_lengthB8ne180100v, symObjAddr: 0x6480, symBinAddr: 0x100006DA0, symSize: 0x40 }
  - { offset: 0x16C43, size: 0x8, addend: 0x0, symName: __Z8ParseArgRKNSt3__112basic_stringIcNS_11char_traitsIcEENS_9allocatorIcEEEEc, symObjAddr: 0x0, symBinAddr: 0x100000920, symSize: 0x1C0 }
  - { offset: 0x16CD2, size: 0x8, addend: 0x0, symName: __ZNKSt3__112basic_stringIcNS_11char_traitsIcEENS_9allocatorIcEEE5beginB8ne180100Ev, symObjAddr: 0x1C0, symBinAddr: 0x100000AE0, symSize: 0x50 }
  - { offset: 0x16CF8, size: 0x8, addend: 0x0, symName: __ZNKSt3__112basic_stringIcNS_11char_traitsIcEENS_9allocatorIcEEE3endB8ne180100Ev, symObjAddr: 0x210, symBinAddr: 0x100000B30, symSize: 0x50 }
  - { offset: 0x16D1E, size: 0x8, addend: 0x0, symName: __ZNKSt3__112basic_stringIcNS_11char_traitsIcEENS_9allocatorIcEEE6substrB8ne180100Emm, symObjAddr: 0x340, symBinAddr: 0x100000C60, symSize: 0x70 }
  - { offset: 0x16D62, size: 0x8, addend: 0x0, symName: __ZNKSt3__112basic_stringIcNS_11char_traitsIcEENS_9allocatorIcEEE4sizeB8ne180100Ev, symObjAddr: 0x3B0, symBinAddr: 0x100000CD0, symSize: 0x50 }
  - { offset: 0x16DAA, size: 0x8, addend: 0x0, symName: __ZNSt3__14pairINS_12basic_stringIcNS_11char_traitsIcEENS_9allocatorIcEEEES6_EC1B8ne180100IS6_S6_Li0EEEOT_OT0_, symObjAddr: 0x400, symBinAddr: 0x100000D20, symSize: 0x30 }
  - { offset: 0x16EFB, size: 0x8, addend: 0x0, symName: __ZNSt3__18optionalINS_4pairINS_12basic_stringIcNS_11char_traitsIcEENS_9allocatorIcEEEES7_EEEC1B8ne180100IS8_Li0EEEOT_, symObjAddr: 0x430, symBinAddr: 0x100000D50, symSize: 0x30 }
  - { offset: 0x16F43, size: 0x8, addend: 0x0, symName: __ZNSt3__14pairINS_12basic_stringIcNS_11char_traitsIcEENS_9allocatorIcEEEES6_ED1Ev, symObjAddr: 0x460, symBinAddr: 0x100000D80, symSize: 0x20 }
  - { offset: 0x16F6F, size: 0x8, addend: 0x0, symName: __ZNSt3__18optionalINS_4pairINS_12basic_stringIcNS_11char_traitsIcEENS_9allocatorIcEEEES7_EEEC1B8ne180100Ev, symObjAddr: 0x480, symBinAddr: 0x100000DA0, symSize: 0x20 }
  - { offset: 0x16F98, size: 0x8, addend: 0x0, symName: __Z13tokenize_lineNSt3__112basic_stringIcNS_11char_traitsIcEENS_9allocatorIcEEEE, symObjAddr: 0x4A0, symBinAddr: 0x100000DC0, symSize: 0x170 }
  - { offset: 0x17032, size: 0x8, addend: 0x0, symName: __ZNSt3__112basic_stringIcNS_11char_traitsIcEENS_9allocatorIcEEE5beginB8ne180100Ev, symObjAddr: 0x610, symBinAddr: 0x100000F30, symSize: 0x50 }
  - { offset: 0x17058, size: 0x8, addend: 0x0, symName: __ZNSt3__112basic_stringIcNS_11char_traitsIcEENS_9allocatorIcEEE3endB8ne180100Ev, symObjAddr: 0x660, symBinAddr: 0x100000F80, symSize: 0x50 }
  - { offset: 0x1707E, size: 0x8, addend: 0x0, symName: __ZNKSt3__111__wrap_iterIPcEdeB8ne180100Ev, symObjAddr: 0x6E0, symBinAddr: 0x100001000, symSize: 0x20 }
  - { offset: 0x170A4, size: 0x8, addend: 0x0, symName: __ZNSt3__112basic_stringIcNS_11char_traitsIcEENS_9allocatorIcEEEixB8ne180100Em, symObjAddr: 0x700, symBinAddr: 0x100001020, symSize: 0x40 }
  - { offset: 0x170D9, size: 0x8, addend: 0x0, symName: __ZNSt3__113basic_ostreamIcNS_11char_traitsIcEEElsB8ne180100EPFRS3_S4_E, symObjAddr: 0x790, symBinAddr: 0x1000010B0, symSize: 0x20 }
  - { offset: 0x1710D, size: 0x8, addend: 0x0, symName: __ZNSt3__111__wrap_iterIPcEppB8ne180100Ev, symObjAddr: 0x800, symBinAddr: 0x100001120, symSize: 0x20 }
  - { offset: 0x17133, size: 0x8, addend: 0x0, symName: __ZNSt3__16vectorINS_12basic_stringIcNS_11char_traitsIcEENS_9allocatorIcEEEENS4_IS6_EEEC1B8ne180100Ev, symObjAddr: 0x820, symBinAddr: 0x100001140, symSize: 0x20 }
  - { offset: 0x1715C, size: 0x8, addend: 0x0, symName: __Z15trim_whitespaceNSt3__112basic_stringIcNS_11char_traitsIcEENS_9allocatorIcEEEE, symObjAddr: 0x840, symBinAddr: 0x100001160, symSize: 0x80 }
  - { offset: 0x17198, size: 0x8, addend: 0x0, symName: _main, symObjAddr: 0x8C0, symBinAddr: 0x1000011E0, symSize: 0x690 }
  - { offset: 0x17245, size: 0x8, addend: 0x0, symName: __ZNSt3__112basic_stringIcNS_11char_traitsIcEENS_9allocatorIcEEEC1B8ne180100ILi0EEEPKc, symObjAddr: 0xF90, symBinAddr: 0x1000018B0, symSize: 0x30 }
  - { offset: 0x17284, size: 0x8, addend: 0x0, symName: __ZNKSt3__123__optional_storage_baseINS_4pairINS_12basic_stringIcNS_11char_traitsIcEENS_9allocatorIcEEEES7_EELb0EE9has_valueB8ne180100Ev, symObjAddr: 0xFC0, symBinAddr: 0x1000018E0, symSize: 0x20 }
  - { offset: 0x172AA, size: 0x8, addend: 0x0, symName: __ZNSt3__18optionalINS_4pairINS_12basic_stringIcNS_11char_traitsIcEENS_9allocatorIcEEEES7_EEEptB8ne180100Ev, symObjAddr: 0xFE0, symBinAddr: 0x100001900, symSize: 0x20 }
  - { offset: 0x17631, size: 0x8, addend: 0x0, symName: __ZNSt3__114basic_ifstreamIcNS_11char_traitsIcEEEC1ERKNS_12basic_stringIcS2_NS_9allocatorIcEEEEj, symObjAddr: 0x1000, symBinAddr: 0x100001920, symSize: 0x160 }
  - { offset: 0x1767B, size: 0x8, addend: 0x0, symName: __ZNKSt3__114basic_ifstreamIcNS_11char_traitsIcEEE7is_openEv, symObjAddr: 0x1160, symBinAddr: 0x100001A80, symSize: 0x30 }
  - { offset: 0x176A3, size: 0x8, addend: 0x0, symName: __ZNSt3__112basic_stringIcNS_11char_traitsIcEENS_9allocatorIcEEEC1B8ne180100Ev, symObjAddr: 0x1190, symBinAddr: 0x100001AB0, symSize: 0x20 }
  - { offset: 0x17710, size: 0x8, addend: 0x0, symName: __ZNSt3__15stackIcNS_5dequeIcNS_9allocatorIcEEEEEC1B8ne180100Ev, symObjAddr: 0x11B0, symBinAddr: 0x100001AD0, symSize: 0x20 }
  - { offset: 0x1773A, size: 0x8, addend: 0x0, symName: __ZNKSt3__19basic_iosIcNS_11char_traitsIcEEEcvbB8ne180100Ev, symObjAddr: 0x1220, symBinAddr: 0x100001B40, symSize: 0x30 }
  - { offset: 0x17760, size: 0x8, addend: 0x0, symName: __ZNSt3__112basic_stringIcNS_11char_traitsIcEENS_9allocatorIcEEEC1B8ne180100Emc, symObjAddr: 0x1280, symBinAddr: 0x100001BA0, symSize: 0x30 }
  - { offset: 0x177A8, size: 0x8, addend: 0x0, symName: __ZNSt3__15stackIcNS_5dequeIcNS_9allocatorIcEEEEE4pushB8ne180100EOc, symObjAddr: 0x12B0, symBinAddr: 0x100001BD0, symSize: 0x30 }
  - { offset: 0x177DC, size: 0x8, addend: 0x0, symName: __ZNSt3__16vectorINS_12basic_stringIcNS_11char_traitsIcEENS_9allocatorIcEEEENS4_IS6_EEED1B8ne180100Ev, symObjAddr: 0x12E0, symBinAddr: 0x100001C00, symSize: 0x20 }
  - { offset: 0x17806, size: 0x8, addend: 0x0, symName: __ZNSt3__15stackIcNS_5dequeIcNS_9allocatorIcEEEEED1Ev, symObjAddr: 0x1300, symBinAddr: 0x100001C20, symSize: 0x20 }
  - { offset: 0x17837, size: 0x8, addend: 0x0, symName: __ZNSt3__114basic_ifstreamIcNS_11char_traitsIcEEED1Ev, symObjAddr: 0x1320, symBinAddr: 0x100001C40, symSize: 0x40 }
  - { offset: 0x17864, size: 0x8, addend: 0x0, symName: __ZNSt3__18optionalINS_4pairINS_12basic_stringIcNS_11char_traitsIcEENS_9allocatorIcEEEES7_EEED1Ev, symObjAddr: 0x1360, symBinAddr: 0x100001C80, symSize: 0x20 }
  - { offset: 0x17891, size: 0x8, addend: 0x0, symName: __ZNKSt3__112basic_stringIcNS_11char_traitsIcEENS_9allocatorIcEEE21__make_const_iteratorB8ne180100EPKc, symObjAddr: 0x1380, symBinAddr: 0x100001CA0, symSize: 0x30 }
  - { offset: 0x178C6, size: 0x8, addend: 0x0, symName: __ZNKSt3__112basic_stringIcNS_11char_traitsIcEENS_9allocatorIcEEE13__get_pointerB8ne180100Ev, symObjAddr: 0x13B0, symBinAddr: 0x100001CD0, symSize: 0x50 }
  - { offset: 0x178EC, size: 0x8, addend: 0x0, symName: __ZNSt3__111__wrap_iterIPKcEC1B8ne180100ES2_, symObjAddr: 0x1410, symBinAddr: 0x100001D30, symSize: 0x30 }
  - { offset: 0x17924, size: 0x8, addend: 0x0, symName: __ZNSt3__111__wrap_iterIPKcEC2B8ne180100ES2_, symObjAddr: 0x1440, symBinAddr: 0x100001D60, symSize: 0x20 }
  - { offset: 0x1795C, size: 0x8, addend: 0x0, symName: __ZNKSt3__112basic_stringIcNS_11char_traitsIcEENS_9allocatorIcEEE9__is_longB8ne180100Ev, symObjAddr: 0x1460, symBinAddr: 0x100001D80, symSize: 0x30 }
  - { offset: 0x17982, size: 0x8, addend: 0x0, symName: __ZNKSt3__112basic_stringIcNS_11char_traitsIcEENS_9allocatorIcEEE18__get_long_pointerB8ne180100Ev, symObjAddr: 0x1490, symBinAddr: 0x100001DB0, symSize: 0x20 }
  - { offset: 0x179A8, size: 0x8, addend: 0x0, symName: __ZNKSt3__112basic_stringIcNS_11char_traitsIcEENS_9allocatorIcEEE19__get_short_pointerB8ne180100Ev, symObjAddr: 0x14B0, symBinAddr: 0x100001DD0, symSize: 0x30 }
  - { offset: 0x179CE, size: 0x8, addend: 0x0, symName: __ZNKSt3__117__compressed_pairINS_12basic_stringIcNS_11char_traitsIcEENS_9allocatorIcEEE5__repES5_E5firstB8ne180100Ev, symObjAddr: 0x14E0, symBinAddr: 0x100001E00, symSize: 0x20 }
  - { offset: 0x179F4, size: 0x8, addend: 0x0, symName: __ZNKSt3__122__compressed_pair_elemINS_12basic_stringIcNS_11char_traitsIcEENS_9allocatorIcEEE5__repELi0ELb0EE5__getB8ne180100Ev, symObjAddr: 0x1500, symBinAddr: 0x100001E20, symSize: 0x10 }
  - { offset: 0x17A1A, size: 0x8, addend: 0x0, symName: __ZNSt3__114pointer_traitsIPKcE10pointer_toB8ne180100ERS1_, symObjAddr: 0x1510, symBinAddr: 0x100001E30, symSize: 0x10 }
  - { offset: 0x17A3D, size: 0x8, addend: 0x0, symName: __ZNSt3__118__unwrap_iter_implINS_11__wrap_iterIPKcEELb1EE8__rewrapB8ne180100ES4_S3_, symObjAddr: 0x1610, symBinAddr: 0x100001F30, symSize: 0x40 }
  - { offset: 0x17A6E, size: 0x8, addend: 0x0, symName: __ZNKSt3__111__wrap_iterIPKcEplB8ne180100El, symObjAddr: 0x1650, symBinAddr: 0x100001F70, symSize: 0x40 }
  - { offset: 0x17AB0, size: 0x8, addend: 0x0, symName: __ZNSt3__111__wrap_iterIPKcEpLB8ne180100El, symObjAddr: 0x16B0, symBinAddr: 0x100001FD0, symSize: 0x20 }
  - { offset: 0x17AEF, size: 0x8, addend: 0x0, symName: __ZNSt3__119__to_address_helperINS_11__wrap_iterIPKcEEvE6__callB8ne180100ERKS4_, symObjAddr: 0x16D0, symBinAddr: 0x100001FF0, symSize: 0x30 }
  - { offset: 0x17B12, size: 0x8, addend: 0x0, symName: __ZNSt3__114pointer_traitsINS_11__wrap_iterIPKcEEE10to_addressB8ne180100ES4_, symObjAddr: 0x1700, symBinAddr: 0x100002020, symSize: 0x30 }
  - { offset: 0x17B35, size: 0x8, addend: 0x0, symName: __ZNKSt3__111__wrap_iterIPKcE4baseB8ne180100Ev, symObjAddr: 0x1740, symBinAddr: 0x100002060, symSize: 0x20 }
  - { offset: 0x17B5B, size: 0x8, addend: 0x0, symName: __ZNSt3__118__unwrap_iter_implINS_11__wrap_iterIPKcEELb1EE8__unwrapB8ne180100ES4_, symObjAddr: 0x17A0, symBinAddr: 0x1000020C0, symSize: 0x20 }
  - { offset: 0x17B7E, size: 0x8, addend: 0x0, symName: __ZNSt3__19allocatorIcEC1B8ne180100Ev, symObjAddr: 0x1800, symBinAddr: 0x100002120, symSize: 0x20 }
  - { offset: 0x17BA8, size: 0x8, addend: 0x0, symName: __ZNSt3__19allocatorIcEC2B8ne180100Ev, symObjAddr: 0x1820, symBinAddr: 0x100002140, symSize: 0x20 }
  - { offset: 0x17BD2, size: 0x8, addend: 0x0, symName: __ZNSt3__116__non_trivial_ifILb1ENS_9allocatorIcEEEC2B8ne180100Ev, symObjAddr: 0x1840, symBinAddr: 0x100002160, symSize: 0x10 }
  - { offset: 0x17BFC, size: 0x8, addend: 0x0, symName: __ZNKSt3__112basic_stringIcNS_11char_traitsIcEENS_9allocatorIcEEE15__get_long_sizeB8ne180100Ev, symObjAddr: 0x1850, symBinAddr: 0x100002170, symSize: 0x20 }
  - { offset: 0x17C22, size: 0x8, addend: 0x0, symName: __ZNKSt3__112basic_stringIcNS_11char_traitsIcEENS_9allocatorIcEEE16__get_short_sizeB8ne180100Ev, symObjAddr: 0x1870, symBinAddr: 0x100002190, symSize: 0x30 }
  - { offset: 0x17C48, size: 0x8, addend: 0x0, symName: __ZNSt3__14pairINS_12basic_stringIcNS_11char_traitsIcEENS_9allocatorIcEEEES6_EC2B8ne180100IS6_S6_Li0EEEOT_OT0_, symObjAddr: 0x18A0, symBinAddr: 0x1000021C0, symSize: 0x40 }
  - { offset: 0x17CA6, size: 0x8, addend: 0x0, symName: __ZNSt3__112basic_stringIcNS_11char_traitsIcEENS_9allocatorIcEEEC1B8ne180100EOS5_, symObjAddr: 0x18E0, symBinAddr: 0x100002200, symSize: 0x30 }
  - { offset: 0x17CDF, size: 0x8, addend: 0x0, symName: __ZNSt3__112basic_stringIcNS_11char_traitsIcEENS_9allocatorIcEEEC2B8ne180100EOS5_, symObjAddr: 0x1910, symBinAddr: 0x100002230, symSize: 0xD0 }
  - { offset: 0x17D49, size: 0x8, addend: 0x0, symName: __ZZNSt3__112basic_stringIcNS_11char_traitsIcEENS_9allocatorIcEEEC1B8ne180100EOS5_ENKUlRS5_E_clES7_, symObjAddr: 0x19E0, symBinAddr: 0x100002300, symSize: 0x40 }
  - { offset: 0x17D82, size: 0x8, addend: 0x0, symName: __ZNSt3__117__compressed_pairINS_12basic_stringIcNS_11char_traitsIcEENS_9allocatorIcEEE5__repES5_E5firstB8ne180100Ev, symObjAddr: 0x1A20, symBinAddr: 0x100002340, symSize: 0x20 }
  - { offset: 0x17DA8, size: 0x8, addend: 0x0, symName: __ZNKSt3__112basic_stringIcNS_11char_traitsIcEENS_9allocatorIcEEE14__annotate_newB8ne180100Em, symObjAddr: 0x1A40, symBinAddr: 0x100002360, symSize: 0x10 }
  - { offset: 0x17DDD, size: 0x8, addend: 0x0, symName: __ZNKSt3__112basic_stringIcNS_11char_traitsIcEENS_9allocatorIcEEE17__annotate_deleteB8ne180100Ev, symObjAddr: 0x1A50, symBinAddr: 0x100002370, symSize: 0x10 }
  - { offset: 0x17E03, size: 0x8, addend: 0x0, symName: __ZNSt3__122__compressed_pair_elemINS_12basic_stringIcNS_11char_traitsIcEENS_9allocatorIcEEE5__repELi0ELb0EE5__getB8ne180100Ev, symObjAddr: 0x1A60, symBinAddr: 0x100002380, symSize: 0x10 }
  - { offset: 0x17E29, size: 0x8, addend: 0x0, symName: __ZNSt3__18optionalINS_4pairINS_12basic_stringIcNS_11char_traitsIcEENS_9allocatorIcEEEES7_EEEC2B8ne180100IS8_Li0EEEOT_, symObjAddr: 0x1A70, symBinAddr: 0x100002390, symSize: 0x30 }
  - { offset: 0x17E71, size: 0x8, addend: 0x0, symName: __ZNSt3__127__optional_move_assign_baseINS_4pairINS_12basic_stringIcNS_11char_traitsIcEENS_9allocatorIcEEEES7_EELb0EECI2NS_24__optional_destruct_baseIS8_Lb0EEEIJS8_EEENS_10in_place_tEDpOT_, symObjAddr: 0x1AA0, symBinAddr: 0x1000023C0, symSize: 0x30 }
  - { offset: 0x17EB0, size: 0x8, addend: 0x0, symName: __ZNSt3__127__optional_copy_assign_baseINS_4pairINS_12basic_stringIcNS_11char_traitsIcEENS_9allocatorIcEEEES7_EELb0EECI2NS_24__optional_destruct_baseIS8_Lb0EEEIJS8_EEENS_10in_place_tEDpOT_, symObjAddr: 0x1AD0, symBinAddr: 0x1000023F0, symSize: 0x30 }
  - { offset: 0x17EEF, size: 0x8, addend: 0x0, symName: __ZNSt3__120__optional_move_baseINS_4pairINS_12basic_stringIcNS_11char_traitsIcEENS_9allocatorIcEEEES7_EELb0EECI2NS_24__optional_destruct_baseIS8_Lb0EEEIJS8_EEENS_10in_place_tEDpOT_, symObjAddr: 0x1B00, symBinAddr: 0x100002420, symSize: 0x30 }
  - { offset: 0x17F2E, size: 0x8, addend: 0x0, symName: __ZNSt3__120__optional_copy_baseINS_4pairINS_12basic_stringIcNS_11char_traitsIcEENS_9allocatorIcEEEES7_EELb0EECI2NS_24__optional_destruct_baseIS8_Lb0EEEIJS8_EEENS_10in_place_tEDpOT_, symObjAddr: 0x1B30, symBinAddr: 0x100002450, symSize: 0x30 }
  - { offset: 0x17F6D, size: 0x8, addend: 0x0, symName: __ZNSt3__123__optional_storage_baseINS_4pairINS_12basic_stringIcNS_11char_traitsIcEENS_9allocatorIcEEEES7_EELb0EECI2NS_24__optional_destruct_baseIS8_Lb0EEEIJS8_EEENS_10in_place_tEDpOT_, symObjAddr: 0x1B60, symBinAddr: 0x100002480, symSize: 0x30 }
  - { offset: 0x17FAC, size: 0x8, addend: 0x0, symName: __ZNSt3__124__optional_destruct_baseINS_4pairINS_12basic_stringIcNS_11char_traitsIcEENS_9allocatorIcEEEES7_EELb0EEC2B8ne180100IJS8_EEENS_10in_place_tEDpOT_, symObjAddr: 0x1B90, symBinAddr: 0x1000024B0, symSize: 0x30 }
  - { offset: 0x17FFC, size: 0x8, addend: 0x0, symName: __ZNSt3__14pairINS_12basic_stringIcNS_11char_traitsIcEENS_9allocatorIcEEEES6_EC1B8ne180100EOS7_, symObjAddr: 0x1BC0, symBinAddr: 0x1000024E0, symSize: 0x30 }
  - { offset: 0x18030, size: 0x8, addend: 0x0, symName: __ZNSt3__14pairINS_12basic_stringIcNS_11char_traitsIcEENS_9allocatorIcEEEES6_EC2B8ne180100EOS7_, symObjAddr: 0x1BF0, symBinAddr: 0x100002510, symSize: 0x40 }
  - { offset: 0x18064, size: 0x8, addend: 0x0, symName: __ZNSt3__14pairINS_12basic_stringIcNS_11char_traitsIcEENS_9allocatorIcEEEES6_ED2Ev, symObjAddr: 0x1C30, symBinAddr: 0x100002550, symSize: 0x30 }
  - { offset: 0x18090, size: 0x8, addend: 0x0, symName: __ZNSt3__18optionalINS_4pairINS_12basic_stringIcNS_11char_traitsIcEENS_9allocatorIcEEEES7_EEEC2B8ne180100Ev, symObjAddr: 0x1C60, symBinAddr: 0x100002580, symSize: 0x20 }
  - { offset: 0x180BA, size: 0x8, addend: 0x0, symName: __ZNSt3__127__optional_move_assign_baseINS_4pairINS_12basic_stringIcNS_11char_traitsIcEENS_9allocatorIcEEEES7_EELb0EEC2B8ne180100Ev, symObjAddr: 0x1C80, symBinAddr: 0x1000025A0, symSize: 0x20 }
  - { offset: 0x180E4, size: 0x8, addend: 0x0, symName: __ZNSt3__127__optional_copy_assign_baseINS_4pairINS_12basic_stringIcNS_11char_traitsIcEENS_9allocatorIcEEEES7_EELb0EEC2B8ne180100Ev, symObjAddr: 0x1CA0, symBinAddr: 0x1000025C0, symSize: 0x20 }
  - { offset: 0x1810E, size: 0x8, addend: 0x0, symName: __ZNSt3__120__optional_move_baseINS_4pairINS_12basic_stringIcNS_11char_traitsIcEENS_9allocatorIcEEEES7_EELb0EEC2B8ne180100Ev, symObjAddr: 0x1CC0, symBinAddr: 0x1000025E0, symSize: 0x20 }
  - { offset: 0x18138, size: 0x8, addend: 0x0, symName: __ZNSt3__120__optional_copy_baseINS_4pairINS_12basic_stringIcNS_11char_traitsIcEENS_9allocatorIcEEEES7_EELb0EEC2B8ne180100Ev, symObjAddr: 0x1CE0, symBinAddr: 0x100002600, symSize: 0x20 }
  - { offset: 0x18162, size: 0x8, addend: 0x0, symName: __ZNSt3__123__optional_storage_baseINS_4pairINS_12basic_stringIcNS_11char_traitsIcEENS_9allocatorIcEEEES7_EELb0EEC2Ev, symObjAddr: 0x1D00, symBinAddr: 0x100002620, symSize: 0x20 }
  - { offset: 0x1818F, size: 0x8, addend: 0x0, symName: __ZNSt3__124__optional_destruct_baseINS_4pairINS_12basic_stringIcNS_11char_traitsIcEENS_9allocatorIcEEEES7_EELb0EEC2B8ne180100Ev, symObjAddr: 0x1D20, symBinAddr: 0x100002640, symSize: 0x20 }
  - { offset: 0x181B9, size: 0x8, addend: 0x0, symName: __ZNSt3__112basic_stringIcNS_11char_traitsIcEENS_9allocatorIcEEE15__make_iteratorB8ne180100EPc, symObjAddr: 0x1D40, symBinAddr: 0x100002660, symSize: 0x30 }
  - { offset: 0x181EE, size: 0x8, addend: 0x0, symName: __ZNSt3__112basic_stringIcNS_11char_traitsIcEENS_9allocatorIcEEE13__get_pointerB8ne180100Ev, symObjAddr: 0x1D70, symBinAddr: 0x100002690, symSize: 0x50 }
  - { offset: 0x18214, size: 0x8, addend: 0x0, symName: __ZNSt3__111__wrap_iterIPcEC1B8ne180100ES1_, symObjAddr: 0x1DC0, symBinAddr: 0x1000026E0, symSize: 0x30 }
  - { offset: 0x1824C, size: 0x8, addend: 0x0, symName: __ZNSt3__111__wrap_iterIPcEC2B8ne180100ES1_, symObjAddr: 0x1DF0, symBinAddr: 0x100002710, symSize: 0x20 }
  - { offset: 0x18284, size: 0x8, addend: 0x0, symName: __ZNSt3__112basic_stringIcNS_11char_traitsIcEENS_9allocatorIcEEE18__get_long_pointerB8ne180100Ev, symObjAddr: 0x1E10, symBinAddr: 0x100002730, symSize: 0x20 }
  - { offset: 0x182AA, size: 0x8, addend: 0x0, symName: __ZNSt3__112basic_stringIcNS_11char_traitsIcEENS_9allocatorIcEEE19__get_short_pointerB8ne180100Ev, symObjAddr: 0x1E30, symBinAddr: 0x100002750, symSize: 0x30 }
  - { offset: 0x182D0, size: 0x8, addend: 0x0, symName: __ZNSt3__114pointer_traitsIPcE10pointer_toB8ne180100ERc, symObjAddr: 0x1E60, symBinAddr: 0x100002780, symSize: 0x10 }
  - { offset: 0x182F3, size: 0x8, addend: 0x0, symName: __ZNKSt3__111__wrap_iterIPcE4baseB8ne180100Ev, symObjAddr: 0x1EB0, symBinAddr: 0x1000027D0, symSize: 0x20 }
  - { offset: 0x18319, size: 0x8, addend: 0x0, symName: __ZNSt3__112basic_stringIcNS_11char_traitsIcEENS_9allocatorIcEEE13__fits_in_ssoB8ne180100Em, symObjAddr: 0x1ED0, symBinAddr: 0x1000027F0, symSize: 0x20 }
  - { offset: 0x1833D, size: 0x8, addend: 0x0, symName: __ZNSt3__16vectorINS_12basic_stringIcNS_11char_traitsIcEENS_9allocatorIcEEEENS4_IS6_EEEC2B8ne180100Ev, symObjAddr: 0x1EF0, symBinAddr: 0x100002810, symSize: 0x50 }
  - { offset: 0x18373, size: 0x8, addend: 0x0, symName: __ZNSt3__117__compressed_pairIPNS_12basic_stringIcNS_11char_traitsIcEENS_9allocatorIcEEEENS4_IS6_EEEC1B8ne180100IDnNS_18__default_init_tagEEEOT_OT0_, symObjAddr: 0x1F40, symBinAddr: 0x100002860, symSize: 0x30 }
  - { offset: 0x183CB, size: 0x8, addend: 0x0, symName: __ZNSt3__117__compressed_pairIPNS_12basic_stringIcNS_11char_traitsIcEENS_9allocatorIcEEEENS4_IS6_EEEC2B8ne180100IDnNS_18__default_init_tagEEEOT_OT0_, symObjAddr: 0x1F70, symBinAddr: 0x100002890, symSize: 0x40 }
  - { offset: 0x18423, size: 0x8, addend: 0x0, symName: __ZNSt3__122__compressed_pair_elemIPNS_12basic_stringIcNS_11char_traitsIcEENS_9allocatorIcEEEELi0ELb0EEC2B8ne180100IDnvEEOT_, symObjAddr: 0x1FB0, symBinAddr: 0x1000028D0, symSize: 0x20 }
  - { offset: 0x18465, size: 0x8, addend: 0x0, symName: __ZNSt3__122__compressed_pair_elemINS_9allocatorINS_12basic_stringIcNS_11char_traitsIcEENS1_IcEEEEEELi1ELb1EEC2B8ne180100ENS_18__default_init_tagE, symObjAddr: 0x1FD0, symBinAddr: 0x1000028F0, symSize: 0x20 }
  - { offset: 0x18499, size: 0x8, addend: 0x0, symName: __ZNSt3__19allocatorINS_12basic_stringIcNS_11char_traitsIcEENS0_IcEEEEEC2B8ne180100Ev, symObjAddr: 0x1FF0, symBinAddr: 0x100002910, symSize: 0x20 }
  - { offset: 0x184C3, size: 0x8, addend: 0x0, symName: __ZNSt3__116__non_trivial_ifILb1ENS_9allocatorINS_12basic_stringIcNS_11char_traitsIcEENS1_IcEEEEEEEC2B8ne180100Ev, symObjAddr: 0x2010, symBinAddr: 0x100002930, symSize: 0x10 }
  - { offset: 0x184ED, size: 0x8, addend: 0x0, symName: __ZNSt3__112basic_stringIcNS_11char_traitsIcEENS_9allocatorIcEEEC2B8ne180100ILi0EEEPKc, symObjAddr: 0x2020, symBinAddr: 0x100002940, symSize: 0x50 }
  - { offset: 0x1852C, size: 0x8, addend: 0x0, symName: __ZNSt3__117__compressed_pairINS_12basic_stringIcNS_11char_traitsIcEENS_9allocatorIcEEE5__repES5_EC1B8ne180100INS_18__default_init_tagESA_EEOT_OT0_, symObjAddr: 0x2070, symBinAddr: 0x100002990, symSize: 0x30 }
  - { offset: 0x18584, size: 0x8, addend: 0x0, symName: __ZNSt3__111char_traitsIcE6lengthB8ne180100EPKc, symObjAddr: 0x20A0, symBinAddr: 0x1000029C0, symSize: 0x30 }
  - { offset: 0x185A7, size: 0x8, addend: 0x0, symName: __ZNSt3__117__compressed_pairINS_12basic_stringIcNS_11char_traitsIcEENS_9allocatorIcEEE5__repES5_EC2B8ne180100INS_18__default_init_tagESA_EEOT_OT0_, symObjAddr: 0x20D0, symBinAddr: 0x1000029F0, symSize: 0x30 }
  - { offset: 0x185FF, size: 0x8, addend: 0x0, symName: __ZNSt3__122__compressed_pair_elemINS_12basic_stringIcNS_11char_traitsIcEENS_9allocatorIcEEE5__repELi0ELb0EEC2B8ne180100ENS_18__default_init_tagE, symObjAddr: 0x2100, symBinAddr: 0x100002A20, symSize: 0x10 }
  - { offset: 0x18633, size: 0x8, addend: 0x0, symName: __ZNSt3__122__compressed_pair_elemINS_9allocatorIcEELi1ELb1EEC2B8ne180100ENS_18__default_init_tagE, symObjAddr: 0x2110, symBinAddr: 0x100002A30, symSize: 0x20 }
  - { offset: 0x18667, size: 0x8, addend: 0x0, symName: __ZNRSt3__123__optional_storage_baseINS_4pairINS_12basic_stringIcNS_11char_traitsIcEENS_9allocatorIcEEEES7_EELb0EE5__getB8ne180100Ev, symObjAddr: 0x2150, symBinAddr: 0x100002A70, symSize: 0x10 }
  - { offset: 0x1868D, size: 0x8, addend: 0x0, symName: __ZNSt3__112basic_stringIcNS_11char_traitsIcEENS_9allocatorIcEEEC2B8ne180100Ev, symObjAddr: 0x2160, symBinAddr: 0x100002A80, symSize: 0x50 }
  - { offset: 0x186BD, size: 0x8, addend: 0x0, symName: __ZNSt3__117__compressed_pairINS_12basic_stringIcNS_11char_traitsIcEENS_9allocatorIcEEE5__repES5_EC1B8ne180100INS_16__value_init_tagENS_18__default_init_tagEEEOT_OT0_, symObjAddr: 0x21B0, symBinAddr: 0x100002AD0, symSize: 0x30 }
  - { offset: 0x18715, size: 0x8, addend: 0x0, symName: __ZNSt3__117__compressed_pairINS_12basic_stringIcNS_11char_traitsIcEENS_9allocatorIcEEE5__repES5_EC2B8ne180100INS_16__value_init_tagENS_18__default_init_tagEEEOT_OT0_, symObjAddr: 0x21E0, symBinAddr: 0x100002B00, symSize: 0x30 }
  - { offset: 0x1876D, size: 0x8, addend: 0x0, symName: __ZNSt3__122__compressed_pair_elemINS_12basic_stringIcNS_11char_traitsIcEENS_9allocatorIcEEE5__repELi0ELb0EEC2B8ne180100ENS_16__value_init_tagE, symObjAddr: 0x2210, symBinAddr: 0x100002B30, symSize: 0x30 }
  - { offset: 0x187A1, size: 0x8, addend: 0x0, symName: __ZNSt3__112basic_stringIcNS_11char_traitsIcEENS_9allocatorIcEEEC2B8ne180100Emc, symObjAddr: 0x2240, symBinAddr: 0x100002B60, symSize: 0x50 }
  - { offset: 0x187E9, size: 0x8, addend: 0x0, symName: __ZNSt3__16vectorINS_12basic_stringIcNS_11char_traitsIcEENS_9allocatorIcEEEENS4_IS6_EEED2B8ne180100Ev, symObjAddr: 0x2290, symBinAddr: 0x100002BB0, symSize: 0x40 }
  - { offset: 0x18813, size: 0x8, addend: 0x0, symName: __ZNSt3__16vectorINS_12basic_stringIcNS_11char_traitsIcEENS_9allocatorIcEEEENS4_IS6_EEE16__destroy_vectorC1B8ne180100ERS8_, symObjAddr: 0x22D0, symBinAddr: 0x100002BF0, symSize: 0x30 }
  - { offset: 0x1884C, size: 0x8, addend: 0x0, symName: __ZNSt3__16vectorINS_12basic_stringIcNS_11char_traitsIcEENS_9allocatorIcEEEENS4_IS6_EEE16__destroy_vectorclB8ne180100Ev, symObjAddr: 0x2300, symBinAddr: 0x100002C20, symSize: 0x80 }
  - { offset: 0x18872, size: 0x8, addend: 0x0, symName: __ZNSt3__16vectorINS_12basic_stringIcNS_11char_traitsIcEENS_9allocatorIcEEEENS4_IS6_EEE16__destroy_vectorC2B8ne180100ERS8_, symObjAddr: 0x2380, symBinAddr: 0x100002CA0, symSize: 0x20 }
  - { offset: 0x188AB, size: 0x8, addend: 0x0, symName: __ZNSt3__16vectorINS_12basic_stringIcNS_11char_traitsIcEENS_9allocatorIcEEEENS4_IS6_EEE7__clearB8ne180100Ev, symObjAddr: 0x23A0, symBinAddr: 0x100002CC0, symSize: 0x20 }
  - { offset: 0x188D1, size: 0x8, addend: 0x0, symName: __ZNKSt3__16vectorINS_12basic_stringIcNS_11char_traitsIcEENS_9allocatorIcEEEENS4_IS6_EEE17__annotate_deleteB8ne180100Ev, symObjAddr: 0x23C0, symBinAddr: 0x100002CE0, symSize: 0x10 }
  - { offset: 0x188F7, size: 0x8, addend: 0x0, symName: __ZNSt3__116allocator_traitsINS_9allocatorINS_12basic_stringIcNS_11char_traitsIcEENS1_IcEEEEEEE10deallocateB8ne180100ERS7_PS6_m, symObjAddr: 0x23D0, symBinAddr: 0x100002CF0, symSize: 0x30 }
  - { offset: 0x18939, size: 0x8, addend: 0x0, symName: __ZNSt3__16vectorINS_12basic_stringIcNS_11char_traitsIcEENS_9allocatorIcEEEENS4_IS6_EEE7__allocB8ne180100Ev, symObjAddr: 0x2400, symBinAddr: 0x100002D20, symSize: 0x20 }
  - { offset: 0x1895F, size: 0x8, addend: 0x0, symName: __ZNKSt3__16vectorINS_12basic_stringIcNS_11char_traitsIcEENS_9allocatorIcEEEENS4_IS6_EEE8capacityB8ne180100Ev, symObjAddr: 0x2420, symBinAddr: 0x100002D40, symSize: 0x40 }
  - { offset: 0x18985, size: 0x8, addend: 0x0, symName: __ZNSt3__16vectorINS_12basic_stringIcNS_11char_traitsIcEENS_9allocatorIcEEEENS4_IS6_EEE22__base_destruct_at_endB8ne180100EPS6_, symObjAddr: 0x2460, symBinAddr: 0x100002D80, symSize: 0x80 }
  - { offset: 0x189C9, size: 0x8, addend: 0x0, symName: __ZNSt3__116allocator_traitsINS_9allocatorINS_12basic_stringIcNS_11char_traitsIcEENS1_IcEEEEEEE7destroyB8ne180100IS6_vvEEvRS7_PT_, symObjAddr: 0x24E0, symBinAddr: 0x100002E00, symSize: 0x20 }
  - { offset: 0x18A04, size: 0x8, addend: 0x0, symName: __ZNSt3__19allocatorINS_12basic_stringIcNS_11char_traitsIcEENS0_IcEEEEE10deallocateB8ne180100EPS5_m, symObjAddr: 0x2530, symBinAddr: 0x100002E50, symSize: 0x50 }
  - { offset: 0x18A46, size: 0x8, addend: 0x0, symName: __ZNSt3__117__compressed_pairIPNS_12basic_stringIcNS_11char_traitsIcEENS_9allocatorIcEEEENS4_IS6_EEE6secondB8ne180100Ev, symObjAddr: 0x26A0, symBinAddr: 0x100002FC0, symSize: 0x20 }
  - { offset: 0x18A6C, size: 0x8, addend: 0x0, symName: __ZNSt3__122__compressed_pair_elemINS_9allocatorINS_12basic_stringIcNS_11char_traitsIcEENS1_IcEEEEEELi1ELb1EE5__getB8ne180100Ev, symObjAddr: 0x26C0, symBinAddr: 0x100002FE0, symSize: 0x10 }
  - { offset: 0x18A92, size: 0x8, addend: 0x0, symName: __ZNKSt3__16vectorINS_12basic_stringIcNS_11char_traitsIcEENS_9allocatorIcEEEENS4_IS6_EEE9__end_capB8ne180100Ev, symObjAddr: 0x26D0, symBinAddr: 0x100002FF0, symSize: 0x20 }
  - { offset: 0x18AB8, size: 0x8, addend: 0x0, symName: __ZNKSt3__117__compressed_pairIPNS_12basic_stringIcNS_11char_traitsIcEENS_9allocatorIcEEEENS4_IS6_EEE5firstB8ne180100Ev, symObjAddr: 0x26F0, symBinAddr: 0x100003010, symSize: 0x20 }
  - { offset: 0x18ADE, size: 0x8, addend: 0x0, symName: __ZNKSt3__122__compressed_pair_elemIPNS_12basic_stringIcNS_11char_traitsIcEENS_9allocatorIcEEEELi0ELb0EE5__getB8ne180100Ev, symObjAddr: 0x2710, symBinAddr: 0x100003030, symSize: 0x10 }
  - { offset: 0x18B04, size: 0x8, addend: 0x0, symName: __ZNSt3__15stackIcNS_5dequeIcNS_9allocatorIcEEEEED2Ev, symObjAddr: 0x2720, symBinAddr: 0x100003040, symSize: 0x20 }
  - { offset: 0x18B30, size: 0x8, addend: 0x0, symName: __ZNSt3__15dequeIcNS_9allocatorIcEEED1B8ne180100Ev, symObjAddr: 0x2740, symBinAddr: 0x100003060, symSize: 0x20 }
  - { offset: 0x18B5A, size: 0x8, addend: 0x0, symName: __ZNSt3__15dequeIcNS_9allocatorIcEEED2B8ne180100Ev, symObjAddr: 0x2760, symBinAddr: 0x100003080, symSize: 0x90 }
  - { offset: 0x18BB0, size: 0x8, addend: 0x0, symName: __ZNSt3__15dequeIcNS_9allocatorIcEEE5clearEv, symObjAddr: 0x27F0, symBinAddr: 0x100003110, symSize: 0x1A0 }
  - { offset: 0x18C0B, size: 0x8, addend: 0x0, symName: __ZNKSt3__15dequeIcNS_9allocatorIcEEE17__annotate_deleteB8ne180100Ev, symObjAddr: 0x2990, symBinAddr: 0x1000032B0, symSize: 0x10 }
  - { offset: 0x18C31, size: 0x8, addend: 0x0, symName: __ZNSt3__114__split_bufferIPcNS_9allocatorIS1_EEE5beginB8ne180100Ev, symObjAddr: 0x29A0, symBinAddr: 0x1000032C0, symSize: 0x20 }
  - { offset: 0x18C57, size: 0x8, addend: 0x0, symName: __ZNSt3__114__split_bufferIPcNS_9allocatorIS1_EEE3endB8ne180100Ev, symObjAddr: 0x29C0, symBinAddr: 0x1000032E0, symSize: 0x20 }
  - { offset: 0x18C7D, size: 0x8, addend: 0x0, symName: __ZNSt3__116allocator_traitsINS_9allocatorIcEEE10deallocateB8ne180100ERS2_Pcm, symObjAddr: 0x29E0, symBinAddr: 0x100003300, symSize: 0x30 }
  - { offset: 0x18CBF, size: 0x8, addend: 0x0, symName: __ZNSt3__15dequeIcNS_9allocatorIcEEE7__allocB8ne180100Ev, symObjAddr: 0x2A10, symBinAddr: 0x100003330, symSize: 0x20 }
  - { offset: 0x18CE5, size: 0x8, addend: 0x0, symName: __ZNSt3__114__split_bufferIPcNS_9allocatorIS1_EEED1Ev, symObjAddr: 0x2A30, symBinAddr: 0x100003350, symSize: 0x20 }
  - { offset: 0x18D11, size: 0x8, addend: 0x0, symName: __ZNSt3__15dequeIcNS_9allocatorIcEEE5beginB8ne180100Ev, symObjAddr: 0x2A50, symBinAddr: 0x100003370, symSize: 0xB0 }
  - { offset: 0x18D46, size: 0x8, addend: 0x0, symName: __ZNSt3__15dequeIcNS_9allocatorIcEEE3endB8ne180100Ev, symObjAddr: 0x2B00, symBinAddr: 0x100003420, symSize: 0xA0 }
  - { offset: 0x18D8A, size: 0x8, addend: 0x0, symName: __ZNSt3__116allocator_traitsINS_9allocatorIcEEE7destroyB8ne180100IcvvEEvRS2_PT_, symObjAddr: 0x2BD0, symBinAddr: 0x1000034F0, symSize: 0x20 }
  - { offset: 0x18DC5, size: 0x8, addend: 0x0, symName: __ZNKSt3__116__deque_iteratorIcPcRcPS1_lLl4096EEdeB8ne180100Ev, symObjAddr: 0x2BF0, symBinAddr: 0x100003510, symSize: 0x20 }
  - { offset: 0x18DEB, size: 0x8, addend: 0x0, symName: __ZNSt3__116__deque_iteratorIcPcRcPS1_lLl4096EEppB8ne180100Ev, symObjAddr: 0x2C10, symBinAddr: 0x100003530, symSize: 0x50 }
  - { offset: 0x18E11, size: 0x8, addend: 0x0, symName: __ZNSt3__15dequeIcNS_9allocatorIcEEE6__sizeB8ne180100Ev, symObjAddr: 0x2C60, symBinAddr: 0x100003580, symSize: 0x20 }
  - { offset: 0x18E37, size: 0x8, addend: 0x0, symName: __ZNKSt3__114__split_bufferIPcNS_9allocatorIS1_EEE4sizeB8ne180100Ev, symObjAddr: 0x2C80, symBinAddr: 0x1000035A0, symSize: 0x20 }
  - { offset: 0x18E5D, size: 0x8, addend: 0x0, symName: __ZNSt3__114__split_bufferIPcNS_9allocatorIS1_EEE5frontB8ne180100Ev, symObjAddr: 0x2CA0, symBinAddr: 0x1000035C0, symSize: 0x20 }
  - { offset: 0x18E83, size: 0x8, addend: 0x0, symName: __ZNSt3__114__split_bufferIPcNS_9allocatorIS1_EEE9pop_frontB8ne180100Ev, symObjAddr: 0x2CC0, symBinAddr: 0x1000035E0, symSize: 0x30 }
  - { offset: 0x18EA9, size: 0x8, addend: 0x0, symName: __ZNKSt3__15dequeIcNS_9allocatorIcEEE14__annotate_newB8ne180100Em, symObjAddr: 0x2CF0, symBinAddr: 0x100003610, symSize: 0x10 }
  - { offset: 0x18EDE, size: 0x8, addend: 0x0, symName: __ZNKSt3__114__split_bufferIPcNS_9allocatorIS1_EEE5emptyB8ne180100Ev, symObjAddr: 0x2D00, symBinAddr: 0x100003620, symSize: 0x20 }
  - { offset: 0x18F04, size: 0x8, addend: 0x0, symName: __ZNSt3__116__deque_iteratorIcPcRcPS1_lLl4096EEC1B8ne180100ES3_S1_, symObjAddr: 0x2D20, symBinAddr: 0x100003640, symSize: 0x30 }
  - { offset: 0x18F4C, size: 0x8, addend: 0x0, symName: __ZNSt3__116__deque_iteratorIcPcRcPS1_lLl4096EEC2B8ne180100ES3_S1_, symObjAddr: 0x2D50, symBinAddr: 0x100003670, symSize: 0x30 }
  - { offset: 0x18F94, size: 0x8, addend: 0x0, symName: __ZNKSt3__15dequeIcNS_9allocatorIcEEE4sizeB8ne180100Ev, symObjAddr: 0x2D80, symBinAddr: 0x1000036A0, symSize: 0x20 }
  - { offset: 0x18FBA, size: 0x8, addend: 0x0, symName: __ZNKSt3__15dequeIcNS_9allocatorIcEEE6__sizeB8ne180100Ev, symObjAddr: 0x2DA0, symBinAddr: 0x1000036C0, symSize: 0x20 }
  - { offset: 0x18FE0, size: 0x8, addend: 0x0, symName: __ZNKSt3__117__compressed_pairImNS_9allocatorIcEEE5firstB8ne180100Ev, symObjAddr: 0x2DC0, symBinAddr: 0x1000036E0, symSize: 0x20 }
  - { offset: 0x19006, size: 0x8, addend: 0x0, symName: __ZNKSt3__122__compressed_pair_elemImLi0ELb0EE5__getB8ne180100Ev, symObjAddr: 0x2DE0, symBinAddr: 0x100003700, symSize: 0x10 }
  - { offset: 0x1902C, size: 0x8, addend: 0x0, symName: __ZNSt3__117__compressed_pairImNS_9allocatorIcEEE5firstB8ne180100Ev, symObjAddr: 0x2E30, symBinAddr: 0x100003750, symSize: 0x20 }
  - { offset: 0x19052, size: 0x8, addend: 0x0, symName: __ZNSt3__122__compressed_pair_elemImLi0ELb0EE5__getB8ne180100Ev, symObjAddr: 0x2E50, symBinAddr: 0x100003770, symSize: 0x10 }
  - { offset: 0x19078, size: 0x8, addend: 0x0, symName: __ZNSt3__114__split_bufferIPcNS_9allocatorIS1_EEE19__destruct_at_beginB8ne180100EPS1_, symObjAddr: 0x2E60, symBinAddr: 0x100003780, symSize: 0x30 }
  - { offset: 0x190AC, size: 0x8, addend: 0x0, symName: __ZNSt3__114__split_bufferIPcNS_9allocatorIS1_EEE19__destruct_at_beginEPS1_NS_17integral_constantIbLb1EEE, symObjAddr: 0x2E90, symBinAddr: 0x1000037B0, symSize: 0x20 }
  - { offset: 0x190EC, size: 0x8, addend: 0x0, symName: __ZNSt3__19allocatorIcE10deallocateB8ne180100EPcm, symObjAddr: 0x2EB0, symBinAddr: 0x1000037D0, symSize: 0x40 }
  - { offset: 0x1912E, size: 0x8, addend: 0x0, symName: __ZNSt3__117__compressed_pairImNS_9allocatorIcEEE6secondB8ne180100Ev, symObjAddr: 0x2EF0, symBinAddr: 0x100003810, symSize: 0x20 }
  - { offset: 0x19154, size: 0x8, addend: 0x0, symName: __ZNSt3__122__compressed_pair_elemINS_9allocatorIcEELi1ELb1EE5__getB8ne180100Ev, symObjAddr: 0x2F10, symBinAddr: 0x100003830, symSize: 0x10 }
  - { offset: 0x1917A, size: 0x8, addend: 0x0, symName: __ZNSt3__114__split_bufferIPcNS_9allocatorIS1_EEED2Ev, symObjAddr: 0x2F20, symBinAddr: 0x100003840, symSize: 0x70 }
  - { offset: 0x191A6, size: 0x8, addend: 0x0, symName: __ZNSt3__114__split_bufferIPcNS_9allocatorIS1_EEE5clearB8ne180100Ev, symObjAddr: 0x2F90, symBinAddr: 0x1000038B0, symSize: 0x20 }
  - { offset: 0x191CC, size: 0x8, addend: 0x0, symName: __ZNSt3__116allocator_traitsINS_9allocatorIPcEEE10deallocateB8ne180100ERS3_PS2_m, symObjAddr: 0x2FB0, symBinAddr: 0x1000038D0, symSize: 0x30 }
  - { offset: 0x1920E, size: 0x8, addend: 0x0, symName: __ZNSt3__114__split_bufferIPcNS_9allocatorIS1_EEE7__allocB8ne180100Ev, symObjAddr: 0x2FE0, symBinAddr: 0x100003900, symSize: 0x20 }
  - { offset: 0x19234, size: 0x8, addend: 0x0, symName: __ZNKSt3__114__split_bufferIPcNS_9allocatorIS1_EEE8capacityB8ne180100Ev, symObjAddr: 0x3000, symBinAddr: 0x100003920, symSize: 0x30 }
  - { offset: 0x1925A, size: 0x8, addend: 0x0, symName: __ZNSt3__114__split_bufferIPcNS_9allocatorIS1_EEE17__destruct_at_endB8ne180100EPS1_, symObjAddr: 0x3030, symBinAddr: 0x100003950, symSize: 0x30 }
  - { offset: 0x1928E, size: 0x8, addend: 0x0, symName: __ZNSt3__114__split_bufferIPcNS_9allocatorIS1_EEE17__destruct_at_endB8ne180100EPS1_NS_17integral_constantIbLb0EEE, symObjAddr: 0x3060, symBinAddr: 0x100003980, symSize: 0x80 }
  - { offset: 0x192CE, size: 0x8, addend: 0x0, symName: __ZNSt3__116allocator_traitsINS_9allocatorIPcEEE7destroyB8ne180100IS2_vvEEvRS3_PT_, symObjAddr: 0x30E0, symBinAddr: 0x100003A00, symSize: 0x20 }
  - { offset: 0x19309, size: 0x8, addend: 0x0, symName: __ZNSt3__19allocatorIPcE10deallocateB8ne180100EPS1_m, symObjAddr: 0x3120, symBinAddr: 0x100003A40, symSize: 0x40 }
  - { offset: 0x1934B, size: 0x8, addend: 0x0, symName: __ZNSt3__117__compressed_pairIPPcNS_9allocatorIS1_EEE6secondB8ne180100Ev, symObjAddr: 0x3160, symBinAddr: 0x100003A80, symSize: 0x20 }
  - { offset: 0x19371, size: 0x8, addend: 0x0, symName: __ZNSt3__122__compressed_pair_elemINS_9allocatorIPcEELi1ELb1EE5__getB8ne180100Ev, symObjAddr: 0x3180, symBinAddr: 0x100003AA0, symSize: 0x10 }
  - { offset: 0x19397, size: 0x8, addend: 0x0, symName: __ZNKSt3__114__split_bufferIPcNS_9allocatorIS1_EEE9__end_capB8ne180100Ev, symObjAddr: 0x3190, symBinAddr: 0x100003AB0, symSize: 0x20 }
  - { offset: 0x193BD, size: 0x8, addend: 0x0, symName: __ZNKSt3__117__compressed_pairIPPcNS_9allocatorIS1_EEE5firstB8ne180100Ev, symObjAddr: 0x31B0, symBinAddr: 0x100003AD0, symSize: 0x20 }
  - { offset: 0x193E3, size: 0x8, addend: 0x0, symName: __ZNKSt3__122__compressed_pair_elemIPPcLi0ELb0EE5__getB8ne180100Ev, symObjAddr: 0x31D0, symBinAddr: 0x100003AF0, symSize: 0x10 }
  - { offset: 0x19409, size: 0x8, addend: 0x0, symName: __ZNSt3__114basic_ifstreamIcNS_11char_traitsIcEEED2Ev, symObjAddr: 0x31E0, symBinAddr: 0x100003B00, symSize: 0x60 }
  - { offset: 0x19443, size: 0x8, addend: 0x0, symName: __ZTv0_n24_NSt3__114basic_ifstreamIcNS_11char_traitsIcEEED1Ev, symObjAddr: 0x3240, symBinAddr: 0x100003B60, symSize: 0x20 }
  - { offset: 0x1945A, size: 0x8, addend: 0x0, symName: __ZNSt3__18optionalINS_4pairINS_12basic_stringIcNS_11char_traitsIcEENS_9allocatorIcEEEES7_EEED2Ev, symObjAddr: 0x3260, symBinAddr: 0x100003B80, symSize: 0x20 }
  - { offset: 0x19487, size: 0x8, addend: 0x0, symName: __ZNSt3__127__optional_move_assign_baseINS_4pairINS_12basic_stringIcNS_11char_traitsIcEENS_9allocatorIcEEEES7_EELb0EED2Ev, symObjAddr: 0x3280, symBinAddr: 0x100003BA0, symSize: 0x20 }
  - { offset: 0x194B4, size: 0x8, addend: 0x0, symName: __ZNSt3__127__optional_copy_assign_baseINS_4pairINS_12basic_stringIcNS_11char_traitsIcEENS_9allocatorIcEEEES7_EELb0EED2Ev, symObjAddr: 0x32A0, symBinAddr: 0x100003BC0, symSize: 0x20 }
  - { offset: 0x194E1, size: 0x8, addend: 0x0, symName: __ZNSt3__120__optional_move_baseINS_4pairINS_12basic_stringIcNS_11char_traitsIcEENS_9allocatorIcEEEES7_EELb0EED2Ev, symObjAddr: 0x32C0, symBinAddr: 0x100003BE0, symSize: 0x20 }
  - { offset: 0x1950E, size: 0x8, addend: 0x0, symName: __ZNSt3__120__optional_copy_baseINS_4pairINS_12basic_stringIcNS_11char_traitsIcEENS_9allocatorIcEEEES7_EELb0EED2Ev, symObjAddr: 0x32E0, symBinAddr: 0x100003C00, symSize: 0x20 }
  - { offset: 0x1953B, size: 0x8, addend: 0x0, symName: __ZNSt3__123__optional_storage_baseINS_4pairINS_12basic_stringIcNS_11char_traitsIcEENS_9allocatorIcEEEES7_EELb0EED2Ev, symObjAddr: 0x3300, symBinAddr: 0x100003C20, symSize: 0x20 }
  - { offset: 0x19568, size: 0x8, addend: 0x0, symName: __ZNSt3__124__optional_destruct_baseINS_4pairINS_12basic_stringIcNS_11char_traitsIcEENS_9allocatorIcEEEES7_EELb0EED2B8ne180100Ev, symObjAddr: 0x3320, symBinAddr: 0x100003C40, symSize: 0x30 }
  - { offset: 0x19592, size: 0x8, addend: 0x0, symName: __ZNKSt3__112basic_stringIcNS_11char_traitsIcEENS_9allocatorIcEEE4dataB8ne180100Ev, symObjAddr: 0x3540, symBinAddr: 0x100003E60, symSize: 0x30 }
  - { offset: 0x195D9, size: 0x8, addend: 0x0, symName: __ZNKSt3__113basic_ostreamIcNS_11char_traitsIcEEE6sentrycvbB8ne180100Ev, symObjAddr: 0x3570, symBinAddr: 0x100003E90, symSize: 0x20 }
  - { offset: 0x195FF, size: 0x8, addend: 0x0, symName: __ZNSt3__119ostreambuf_iteratorIcNS_11char_traitsIcEEEC1B8ne180100ERNS_13basic_ostreamIcS2_EE, symObjAddr: 0x37B0, symBinAddr: 0x1000040D0, symSize: 0x30 }
  - { offset: 0x19637, size: 0x8, addend: 0x0, symName: __ZNKSt3__18ios_base5flagsB8ne180100Ev, symObjAddr: 0x37E0, symBinAddr: 0x100004100, symSize: 0x20 }
  - { offset: 0x1965F, size: 0x8, addend: 0x0, symName: __ZNKSt3__19basic_iosIcNS_11char_traitsIcEEE4fillB8ne180100Ev, symObjAddr: 0x3800, symBinAddr: 0x100004120, symSize: 0x70 }
  - { offset: 0x19687, size: 0x8, addend: 0x0, symName: __ZNKSt3__119ostreambuf_iteratorIcNS_11char_traitsIcEEE6failedB8ne180100Ev, symObjAddr: 0x3870, symBinAddr: 0x100004190, symSize: 0x20 }
  - { offset: 0x196AD, size: 0x8, addend: 0x0, symName: __ZNSt3__19basic_iosIcNS_11char_traitsIcEEE8setstateB8ne180100Ej, symObjAddr: 0x3890, symBinAddr: 0x1000041B0, symSize: 0x30 }
  - { offset: 0x196E2, size: 0x8, addend: 0x0, symName: __ZNKSt3__18ios_base5widthB8ne180100Ev, symObjAddr: 0x38C0, symBinAddr: 0x1000041E0, symSize: 0x20 }
  - { offset: 0x1970A, size: 0x8, addend: 0x0, symName: __ZNSt3__115basic_streambufIcNS_11char_traitsIcEEE5sputnB8ne180100EPKcl, symObjAddr: 0x38E0, symBinAddr: 0x100004200, symSize: 0x30 }
  - { offset: 0x1974C, size: 0x8, addend: 0x0, symName: __ZNSt3__112basic_stringIcNS_11char_traitsIcEENS_9allocatorIcEEE4dataB8ne180100Ev, symObjAddr: 0x3910, symBinAddr: 0x100004230, symSize: 0x30 }
  - { offset: 0x19772, size: 0x8, addend: 0x0, symName: __ZNSt3__18ios_base5widthB8ne180100El, symObjAddr: 0x3940, symBinAddr: 0x100004260, symSize: 0x30 }
  - { offset: 0x197B8, size: 0x8, addend: 0x0, symName: __ZNSt3__119ostreambuf_iteratorIcNS_11char_traitsIcEEEC2B8ne180100ERNS_13basic_ostreamIcS2_EE, symObjAddr: 0x3980, symBinAddr: 0x1000042A0, symSize: 0x50 }
  - { offset: 0x197F0, size: 0x8, addend: 0x0, symName: __ZNKSt3__19basic_iosIcNS_11char_traitsIcEEE5rdbufB8ne180100Ev, symObjAddr: 0x39D0, symBinAddr: 0x1000042F0, symSize: 0x20 }
  - { offset: 0x19818, size: 0x8, addend: 0x0, symName: __ZNKSt3__18ios_base5rdbufB8ne180100Ev, symObjAddr: 0x39F0, symBinAddr: 0x100004310, symSize: 0x20 }
  - { offset: 0x1983E, size: 0x8, addend: 0x0, symName: __ZNSt3__111char_traitsIcE11eq_int_typeB8ne180100Eii, symObjAddr: 0x3A10, symBinAddr: 0x100004330, symSize: 0x20 }
  - { offset: 0x19871, size: 0x8, addend: 0x0, symName: __ZNSt3__111char_traitsIcE3eofB8ne180100Ev, symObjAddr: 0x3A30, symBinAddr: 0x100004350, symSize: 0x10 }
  - { offset: 0x19885, size: 0x8, addend: 0x0, symName: __ZNKSt3__19basic_iosIcNS_11char_traitsIcEEE5widenB8ne180100Ec, symObjAddr: 0x3A40, symBinAddr: 0x100004360, symSize: 0x80 }
  - { offset: 0x198F9, size: 0x8, addend: 0x0, symName: __ZNKSt3__15ctypeIcE5widenB8ne180100Ec, symObjAddr: 0x3AF0, symBinAddr: 0x100004410, symSize: 0x30 }
  - { offset: 0x1992E, size: 0x8, addend: 0x0, symName: __ZNSt3__18ios_base8setstateB8ne180100Ej, symObjAddr: 0x3B20, symBinAddr: 0x100004440, symSize: 0x30 }
  - { offset: 0x19965, size: 0x8, addend: 0x0, symName: __ZNSt3__19basic_iosIcNS_11char_traitsIcEEEC2B8ne180100Ev, symObjAddr: 0x3B50, symBinAddr: 0x100004470, symSize: 0x40 }
  - { offset: 0x1998F, size: 0x8, addend: 0x0, symName: __ZNSt3__113basic_istreamIcNS_11char_traitsIcEEEC2B8ne180100EPNS_15basic_streambufIcS2_EE, symObjAddr: 0x3B90, symBinAddr: 0x1000044B0, symSize: 0x50 }
  - { offset: 0x199D4, size: 0x8, addend: 0x0, symName: __ZNSt3__113basic_filebufIcNS_11char_traitsIcEEE4openERKNS_12basic_stringIcS2_NS_9allocatorIcEEEEj, symObjAddr: 0x3BE0, symBinAddr: 0x100004500, symSize: 0x40 }
  - { offset: 0x19A1A, size: 0x8, addend: 0x0, symName: __ZNSt3__18ios_baseC2B8ne180100Ev, symObjAddr: 0x3C20, symBinAddr: 0x100004540, symSize: 0x20 }
  - { offset: 0x19A44, size: 0x8, addend: 0x0, symName: __ZNSt3__19basic_iosIcNS_11char_traitsIcEEE4initB8ne180100EPNS_15basic_streambufIcS2_EE, symObjAddr: 0x3C40, symBinAddr: 0x100004560, symSize: 0x50 }
  - { offset: 0x19A7B, size: 0x8, addend: 0x0, symName: __ZNKSt3__112basic_stringIcNS_11char_traitsIcEENS_9allocatorIcEEE5c_strB8ne180100Ev, symObjAddr: 0x3C90, symBinAddr: 0x1000045B0, symSize: 0x20 }
  - { offset: 0x19AA1, size: 0x8, addend: 0x0, symName: __ZNKSt3__113basic_filebufIcNS_11char_traitsIcEEE7is_openEv, symObjAddr: 0x3CB0, symBinAddr: 0x1000045D0, symSize: 0x20 }
  - { offset: 0x19AC9, size: 0x8, addend: 0x0, symName: __ZNSt3__15stackIcNS_5dequeIcNS_9allocatorIcEEEEEC2B8ne180100Ev, symObjAddr: 0x3CD0, symBinAddr: 0x1000045F0, symSize: 0x20 }
  - { offset: 0x19AF3, size: 0x8, addend: 0x0, symName: __ZNSt3__15dequeIcNS_9allocatorIcEEEC1B8ne180100Ev, symObjAddr: 0x3CF0, symBinAddr: 0x100004610, symSize: 0x20 }
  - { offset: 0x19B1D, size: 0x8, addend: 0x0, symName: __ZNSt3__15dequeIcNS_9allocatorIcEEEC2B8ne180100Ev, symObjAddr: 0x3D10, symBinAddr: 0x100004630, symSize: 0x60 }
  - { offset: 0x19B47, size: 0x8, addend: 0x0, symName: __ZNSt3__114__split_bufferIPcNS_9allocatorIS1_EEEC1B8ne180100Ev, symObjAddr: 0x3D70, symBinAddr: 0x100004690, symSize: 0x20 }
  - { offset: 0x19B77, size: 0x8, addend: 0x0, symName: __ZNSt3__117__compressed_pairImNS_9allocatorIcEEEC1B8ne180100IiNS_18__default_init_tagEEEOT_OT0_, symObjAddr: 0x3D90, symBinAddr: 0x1000046B0, symSize: 0x30 }
  - { offset: 0x19BCF, size: 0x8, addend: 0x0, symName: __ZNSt3__114__split_bufferIPcNS_9allocatorIS1_EEEC2B8ne180100Ev, symObjAddr: 0x3DC0, symBinAddr: 0x1000046E0, symSize: 0x60 }
  - { offset: 0x19BF9, size: 0x8, addend: 0x0, symName: __ZNSt3__117__compressed_pairIPPcNS_9allocatorIS1_EEEC1B8ne180100IDnNS_18__default_init_tagEEEOT_OT0_, symObjAddr: 0x3E20, symBinAddr: 0x100004740, symSize: 0x30 }
  - { offset: 0x19C51, size: 0x8, addend: 0x0, symName: __ZNSt3__117__compressed_pairIPPcNS_9allocatorIS1_EEEC2B8ne180100IDnNS_18__default_init_tagEEEOT_OT0_, symObjAddr: 0x3E50, symBinAddr: 0x100004770, symSize: 0x40 }
  - { offset: 0x19CA9, size: 0x8, addend: 0x0, symName: __ZNSt3__122__compressed_pair_elemIPPcLi0ELb0EEC2B8ne180100IDnvEEOT_, symObjAddr: 0x3E90, symBinAddr: 0x1000047B0, symSize: 0x20 }
  - { offset: 0x19CEB, size: 0x8, addend: 0x0, symName: __ZNSt3__122__compressed_pair_elemINS_9allocatorIPcEELi1ELb1EEC2B8ne180100ENS_18__default_init_tagE, symObjAddr: 0x3EB0, symBinAddr: 0x1000047D0, symSize: 0x20 }
  - { offset: 0x19D1F, size: 0x8, addend: 0x0, symName: __ZNSt3__19allocatorIPcEC2B8ne180100Ev, symObjAddr: 0x3ED0, symBinAddr: 0x1000047F0, symSize: 0x20 }
  - { offset: 0x19D49, size: 0x8, addend: 0x0, symName: __ZNSt3__116__non_trivial_ifILb1ENS_9allocatorIPcEEEC2B8ne180100Ev, symObjAddr: 0x3EF0, symBinAddr: 0x100004810, symSize: 0x10 }
  - { offset: 0x19D73, size: 0x8, addend: 0x0, symName: __ZNSt3__117__compressed_pairImNS_9allocatorIcEEEC2B8ne180100IiNS_18__default_init_tagEEEOT_OT0_, symObjAddr: 0x3F00, symBinAddr: 0x100004820, symSize: 0x40 }
  - { offset: 0x19DCB, size: 0x8, addend: 0x0, symName: __ZNSt3__122__compressed_pair_elemImLi0ELb0EEC2B8ne180100IivEEOT_, symObjAddr: 0x3F40, symBinAddr: 0x100004860, symSize: 0x20 }
  - { offset: 0x19E2E, size: 0x8, addend: 0x0, symName: __ZNKSt3__113basic_istreamIcNS_11char_traitsIcEEE6sentrycvbB8ne180100Ev, symObjAddr: 0x4180, symBinAddr: 0x100004AA0, symSize: 0x20 }
  - { offset: 0x19E54, size: 0x8, addend: 0x0, symName: __ZNSt3__112basic_stringIcNS_11char_traitsIcEENS_9allocatorIcEEE5clearB8ne180100Ev, symObjAddr: 0x41A0, symBinAddr: 0x100004AC0, symSize: 0xA0 }
  - { offset: 0x19E8B, size: 0x8, addend: 0x0, symName: __ZNSt3__115basic_streambufIcNS_11char_traitsIcEEE6sbumpcB8ne180100Ev, symObjAddr: 0x4240, symBinAddr: 0x100004B60, symSize: 0x60 }
  - { offset: 0x19EB1, size: 0x8, addend: 0x0, symName: __ZNSt3__111char_traitsIcE12to_char_typeB8ne180100Ei, symObjAddr: 0x42A0, symBinAddr: 0x100004BC0, symSize: 0x10 }
  - { offset: 0x19ED5, size: 0x8, addend: 0x0, symName: __ZNSt3__111char_traitsIcE2eqEcc, symObjAddr: 0x42B0, symBinAddr: 0x100004BD0, symSize: 0x30 }
  - { offset: 0x19F06, size: 0x8, addend: 0x0, symName: __ZNKSt3__112basic_stringIcNS_11char_traitsIcEENS_9allocatorIcEEE8max_sizeB8ne180100Ev, symObjAddr: 0x42E0, symBinAddr: 0x100004C00, symSize: 0xA0 }
  - { offset: 0x19F58, size: 0x8, addend: 0x0, symName: __ZNSt3__18ios_base18__setstate_nothrowB8ne180100Ej, symObjAddr: 0x4380, symBinAddr: 0x100004CA0, symSize: 0x50 }
  - { offset: 0x19F8D, size: 0x8, addend: 0x0, symName: __ZNKSt3__19basic_iosIcNS_11char_traitsIcEEE10exceptionsB8ne180100Ev, symObjAddr: 0x43D0, symBinAddr: 0x100004CF0, symSize: 0x20 }
  - { offset: 0x19FB3, size: 0x8, addend: 0x0, symName: __ZNSt3__111char_traitsIcE6assignB8ne180100ERcRKc, symObjAddr: 0x43F0, symBinAddr: 0x100004D10, symSize: 0x20 }
  - { offset: 0x19FE4, size: 0x8, addend: 0x0, symName: __ZNSt3__112basic_stringIcNS_11char_traitsIcEENS_9allocatorIcEEE15__set_long_sizeB8ne180100Em, symObjAddr: 0x4410, symBinAddr: 0x100004D30, symSize: 0x30 }
  - { offset: 0x1A019, size: 0x8, addend: 0x0, symName: __ZNSt3__112basic_stringIcNS_11char_traitsIcEENS_9allocatorIcEEE16__set_short_sizeB8ne180100Em, symObjAddr: 0x4440, symBinAddr: 0x100004D60, symSize: 0x50 }
  - { offset: 0x1A04E, size: 0x8, addend: 0x0, symName: __ZNKSt3__112basic_stringIcNS_11char_traitsIcEENS_9allocatorIcEEE17__annotate_shrinkB8ne180100Em, symObjAddr: 0x4490, symBinAddr: 0x100004DB0, symSize: 0x10 }
  - { offset: 0x1A083, size: 0x8, addend: 0x0, symName: __ZNSt3__111char_traitsIcE11to_int_typeB8ne180100Ec, symObjAddr: 0x44A0, symBinAddr: 0x100004DC0, symSize: 0x10 }
  - { offset: 0x1A0B2, size: 0x8, addend: 0x0, symName: __ZNSt3__116allocator_traitsINS_9allocatorIcEEE8max_sizeB8ne180100IS2_vvEEmRKS2_, symObjAddr: 0x44B0, symBinAddr: 0x100004DD0, symSize: 0x20 }
  - { offset: 0x1A0DE, size: 0x8, addend: 0x0, symName: __ZNKSt3__112basic_stringIcNS_11char_traitsIcEENS_9allocatorIcEEE7__allocB8ne180100Ev, symObjAddr: 0x44D0, symBinAddr: 0x100004DF0, symSize: 0x20 }
  - { offset: 0x1A104, size: 0x8, addend: 0x0, symName: __ZNSt3__114numeric_limitsImE3maxB8ne180100Ev, symObjAddr: 0x44F0, symBinAddr: 0x100004E10, symSize: 0x10 }
  - { offset: 0x1A118, size: 0x8, addend: 0x0, symName: __ZNKSt3__117__compressed_pairINS_12basic_stringIcNS_11char_traitsIcEENS_9allocatorIcEEE5__repES5_E6secondB8ne180100Ev, symObjAddr: 0x4500, symBinAddr: 0x100004E20, symSize: 0x20 }
  - { offset: 0x1A13E, size: 0x8, addend: 0x0, symName: __ZNKSt3__122__compressed_pair_elemINS_9allocatorIcEELi1ELb1EE5__getB8ne180100Ev, symObjAddr: 0x4520, symBinAddr: 0x100004E40, symSize: 0x10 }
  - { offset: 0x1A164, size: 0x8, addend: 0x0, symName: __ZNSt3__123__libcpp_numeric_limitsImLb1EE3maxB8ne180100Ev, symObjAddr: 0x4530, symBinAddr: 0x100004E50, symSize: 0x10 }
  - { offset: 0x1A178, size: 0x8, addend: 0x0, symName: __ZNKSt3__18ios_base10exceptionsB8ne180100Ev, symObjAddr: 0x4540, symBinAddr: 0x100004E60, symSize: 0x20 }
  - { offset: 0x1A1A0, size: 0x8, addend: 0x0, symName: __ZNKSt3__19basic_iosIcNS_11char_traitsIcEEE4failB8ne180100Ev, symObjAddr: 0x4560, symBinAddr: 0x100004E80, symSize: 0x20 }
  - { offset: 0x1A1C6, size: 0x8, addend: 0x0, symName: __ZNKSt3__18ios_base4failB8ne180100Ev, symObjAddr: 0x4580, symBinAddr: 0x100004EA0, symSize: 0x20 }
  - { offset: 0x1A1EE, size: 0x8, addend: 0x0, symName: __ZNSt3__15dequeIcNS_9allocatorIcEEE9push_backEOc, symObjAddr: 0x45A0, symBinAddr: 0x100004EC0, symSize: 0xA0 }
  - { offset: 0x1A234, size: 0x8, addend: 0x0, symName: __ZNKSt3__15dequeIcNS_9allocatorIcEEE12__back_spareB8ne180100Ev, symObjAddr: 0x4640, symBinAddr: 0x100004F60, symSize: 0x50 }
  - { offset: 0x1A25A, size: 0x8, addend: 0x0, symName: __ZNSt3__15dequeIcNS_9allocatorIcEEE19__add_back_capacityEv, symObjAddr: 0x4690, symBinAddr: 0x100004FB0, symSize: 0x3C0 }
  - { offset: 0x1A30F, size: 0x8, addend: 0x0, symName: __ZNKSt3__15dequeIcNS_9allocatorIcEEE24__annotate_increase_backB8ne180100Em, symObjAddr: 0x4A50, symBinAddr: 0x100005370, symSize: 0x10 }
  - { offset: 0x1A34A, size: 0x8, addend: 0x0, symName: __ZNSt3__116allocator_traitsINS_9allocatorIcEEE9constructB8ne180100IcJcEvvEEvRS2_PT_DpOT0_, symObjAddr: 0x4A60, symBinAddr: 0x100005380, symSize: 0x30 }
  - { offset: 0x1A39F, size: 0x8, addend: 0x0, symName: __ZNKSt3__15dequeIcNS_9allocatorIcEEE10__capacityB8ne180100Ev, symObjAddr: 0x4A90, symBinAddr: 0x1000053B0, symSize: 0x50 }
  - { offset: 0x1A3C5, size: 0x8, addend: 0x0, symName: __ZNKSt3__15dequeIcNS_9allocatorIcEEE13__front_spareB8ne180100Ev, symObjAddr: 0x4AE0, symBinAddr: 0x100005400, symSize: 0x20 }
  - { offset: 0x1A3EB, size: 0x8, addend: 0x0, symName: __ZNSt3__114__split_bufferIPcNS_9allocatorIS1_EEE9push_backB8ne180100ERKS1_, symObjAddr: 0x4B00, symBinAddr: 0x100005420, symSize: 0x290 }
  - { offset: 0x1A463, size: 0x8, addend: 0x0, symName: __ZNKSt3__114__split_bufferIPcNS_9allocatorIS1_EEE12__back_spareB8ne180100Ev, symObjAddr: 0x4D90, symBinAddr: 0x1000056B0, symSize: 0x40 }
  - { offset: 0x1A489, size: 0x8, addend: 0x0, symName: __ZNSt3__114__split_bufferIPcNS_9allocatorIS1_EEE9push_backEOS1_, symObjAddr: 0x4DD0, symBinAddr: 0x1000056F0, symSize: 0x290 }
  - { offset: 0x1A501, size: 0x8, addend: 0x0, symName: __ZNSt3__116allocator_traitsINS_9allocatorIcEEE8allocateB8ne180100ERS2_m, symObjAddr: 0x5060, symBinAddr: 0x100005980, symSize: 0x30 }
  - { offset: 0x1A534, size: 0x8, addend: 0x0, symName: __ZNSt3__114__split_bufferIPcNS_9allocatorIS1_EEE10push_frontEOS1_, symObjAddr: 0x5090, symBinAddr: 0x1000059B0, symSize: 0x270 }
  - { offset: 0x1A5AC, size: 0x8, addend: 0x0, symName: __ZNKSt3__15dequeIcNS_9allocatorIcEEE22__annotate_whole_blockB8ne180100EmNS3_22__asan_annotation_typeE, symObjAddr: 0x5300, symBinAddr: 0x100005C20, symSize: 0x20 }
  - { offset: 0x1A5F0, size: 0x8, addend: 0x0, symName: __ZNSt3__114__split_bufferIPcRNS_9allocatorIS1_EEEC1EmmS4_, symObjAddr: 0x5350, symBinAddr: 0x100005C70, symSize: 0x40 }
  - { offset: 0x1A64B, size: 0x8, addend: 0x0, symName: __ZNSt3__122__allocator_destructorINS_9allocatorIcEEEC1B8ne180100ERS2_m, symObjAddr: 0x5390, symBinAddr: 0x100005CB0, symSize: 0x30 }
  - { offset: 0x1A71C, size: 0x8, addend: 0x0, symName: __ZNSt3__110unique_ptrIPcNS_22__allocator_destructorINS_9allocatorIcEEEEEC1B8ne180100ILb1EvEES1_NS_16__dependent_typeINS_27__unique_ptr_deleter_sfinaeIS5_EEXT_EE20__good_rval_ref_typeE, symObjAddr: 0x53C0, symBinAddr: 0x100005CE0, symSize: 0x30 }
  - { offset: 0x1A76D, size: 0x8, addend: 0x0, symName: __ZNSt3__114__split_bufferIPcRNS_9allocatorIS1_EEE9push_backEOS1_, symObjAddr: 0x53F0, symBinAddr: 0x100005D10, symSize: 0x290 }
  - { offset: 0x1A7E5, size: 0x8, addend: 0x0, symName: __ZNKSt3__110unique_ptrIPcNS_22__allocator_destructorINS_9allocatorIcEEEEE3getB8ne180100Ev, symObjAddr: 0x5680, symBinAddr: 0x100005FA0, symSize: 0x20 }
  - { offset: 0x1A80B, size: 0x8, addend: 0x0, symName: __ZNSt3__110unique_ptrIPcNS_22__allocator_destructorINS_9allocatorIcEEEEE7releaseB8ne180100Ev, symObjAddr: 0x56A0, symBinAddr: 0x100005FC0, symSize: 0x40 }
  - { offset: 0x1A840, size: 0x8, addend: 0x0, symName: __ZNSt3__114__split_bufferIPcRNS_9allocatorIS1_EEE10push_frontERKS1_, symObjAddr: 0x56E0, symBinAddr: 0x100006000, symSize: 0x270 }
  - { offset: 0x1A8B8, size: 0x8, addend: 0x0, symName: __ZNSt3__114__split_bufferIPcNS_9allocatorIS1_EEE9__end_capB8ne180100Ev, symObjAddr: 0x5990, symBinAddr: 0x1000062B0, symSize: 0x20 }
  - { offset: 0x1A8DE, size: 0x8, addend: 0x0, symName: __ZNSt3__114__split_bufferIPcRNS_9allocatorIS1_EEE9__end_capB8ne180100Ev, symObjAddr: 0x59B0, symBinAddr: 0x1000062D0, symSize: 0x20 }
  - { offset: 0x1A904, size: 0x8, addend: 0x0, symName: __ZNSt3__110unique_ptrIPcNS_22__allocator_destructorINS_9allocatorIcEEEEED1B8ne180100Ev, symObjAddr: 0x59D0, symBinAddr: 0x1000062F0, symSize: 0x20 }
  - { offset: 0x1A92E, size: 0x8, addend: 0x0, symName: __ZNSt3__114__split_bufferIPcRNS_9allocatorIS1_EEED1Ev, symObjAddr: 0x59F0, symBinAddr: 0x100006310, symSize: 0x20 }
  - { offset: 0x1A95A, size: 0x8, addend: 0x0, symName: __ZNSt3__114__split_bufferIPcRNS_9allocatorIS1_EEE18__construct_at_endINS_13move_iteratorIPS1_EELi0EEEvT_SA_, symObjAddr: 0x5A50, symBinAddr: 0x100006370, symSize: 0x60 }
  - { offset: 0x1A9AD, size: 0x8, addend: 0x0, symName: __ZNSt3__113move_iteratorIPPcEC1B8ne180100ES2_, symObjAddr: 0x5AB0, symBinAddr: 0x1000063D0, symSize: 0x30 }
  - { offset: 0x1A9E5, size: 0x8, addend: 0x0, symName: __ZNSt3__116allocator_traitsINS_9allocatorIPcEEE9constructB8ne180100IS2_JRKS2_EvvEEvRS3_PT_DpOT0_, symObjAddr: 0x5AE0, symBinAddr: 0x100006400, symSize: 0x30 }
  - { offset: 0x1AA60, size: 0x8, addend: 0x0, symName: __ZNKSt3__114__move_trivialclB8ne180100IPcS2_Li0EEENS_4pairIPT_PT0_EES5_S5_S7_, symObjAddr: 0x5C80, symBinAddr: 0x1000065A0, symSize: 0x40 }
  - { offset: 0x1AAC8, size: 0x8, addend: 0x0, symName: __ZNSt3__119__unwrap_range_implIPPcS2_E8__unwrapB8ne180100ES2_S2_, symObjAddr: 0x5D80, symBinAddr: 0x1000066A0, symSize: 0x50 }
  - { offset: 0x1AAFF, size: 0x8, addend: 0x0, symName: __ZNSt3__14pairIPPcS2_EC1B8ne180100IS2_S2_Li0EEEOT_OT0_, symObjAddr: 0x5DD0, symBinAddr: 0x1000066F0, symSize: 0x30 }
  - { offset: 0x1AB5D, size: 0x8, addend: 0x0, symName: __ZNSt3__14pairIPPcS2_EC2B8ne180100IS2_S2_Li0EEEOT_OT0_, symObjAddr: 0x5E00, symBinAddr: 0x100006720, symSize: 0x30 }
  - { offset: 0x1ABBB, size: 0x8, addend: 0x0, symName: __ZNSt3__14pairIPPcS2_EC1B8ne180100IRS2_S2_Li0EEEOT_OT0_, symObjAddr: 0x5F20, symBinAddr: 0x100006840, symSize: 0x30 }
  - { offset: 0x1AC19, size: 0x8, addend: 0x0, symName: __ZNSt3__14pairIPPcS2_EC2B8ne180100IRS2_S2_Li0EEEOT_OT0_, symObjAddr: 0x5F50, symBinAddr: 0x100006870, symSize: 0x30 }
  - { offset: 0x1AC77, size: 0x8, addend: 0x0, symName: __ZNSt3__118__unwrap_iter_implIPPcLb1EE8__unwrapB8ne180100ES2_, symObjAddr: 0x5F80, symBinAddr: 0x1000068A0, symSize: 0x20 }
  - { offset: 0x1AC9A, size: 0x8, addend: 0x0, symName: __ZNSt3__119__unwrap_range_implIPPcS2_E8__rewrapB8ne180100ES2_S2_, symObjAddr: 0x5FA0, symBinAddr: 0x1000068C0, symSize: 0x30 }
  - { offset: 0x1ACCB, size: 0x8, addend: 0x0, symName: __ZNSt3__118__unwrap_iter_implIPPcLb1EE8__rewrapB8ne180100ES2_S2_, symObjAddr: 0x5FD0, symBinAddr: 0x1000068F0, symSize: 0x50 }
  - { offset: 0x1ACFC, size: 0x8, addend: 0x0, symName: __ZNSt3__114__split_bufferIPcRNS_9allocatorIS1_EEE28__construct_at_end_with_sizeINS_13move_iteratorIPS1_EEEEvT_m, symObjAddr: 0x6020, symBinAddr: 0x100006940, symSize: 0xE0 }
  - { offset: 0x1AD62, size: 0x8, addend: 0x0, symName: __ZNSt3__114__split_bufferIPcRNS_9allocatorIS1_EEE21_ConstructTransactionC1B8ne180100EPPS1_m, symObjAddr: 0x6140, symBinAddr: 0x100006A60, symSize: 0x30 }
  - { offset: 0x1ADAE, size: 0x8, addend: 0x0, symName: __ZNSt3__116allocator_traitsINS_9allocatorIPcEEE9constructB8ne180100IS2_JS2_EvvEEvRS3_PT_DpOT0_, symObjAddr: 0x6170, symBinAddr: 0x100006A90, symSize: 0x30 }
  - { offset: 0x1AE03, size: 0x8, addend: 0x0, symName: __ZNSt3__114__split_bufferIPcRNS_9allocatorIS1_EEE7__allocB8ne180100Ev, symObjAddr: 0x61A0, symBinAddr: 0x100006AC0, symSize: 0x20 }
  - { offset: 0x1AE29, size: 0x8, addend: 0x0, symName: __ZNKSt3__113move_iteratorIPPcEdeB8ne180100Ev, symObjAddr: 0x61C0, symBinAddr: 0x100006AE0, symSize: 0x30 }
  - { offset: 0x1AE4F, size: 0x8, addend: 0x0, symName: __ZNSt3__113move_iteratorIPPcEppB8ne180100Ev, symObjAddr: 0x61F0, symBinAddr: 0x100006B10, symSize: 0x20 }
  - { offset: 0x1AE75, size: 0x8, addend: 0x0, symName: __ZNSt3__114__split_bufferIPcRNS_9allocatorIS1_EEE21_ConstructTransactionD1B8ne180100Ev, symObjAddr: 0x6210, symBinAddr: 0x100006B30, symSize: 0x20 }
  - { offset: 0x1AE9F, size: 0x8, addend: 0x0, symName: __ZNSt3__114__split_bufferIPcRNS_9allocatorIS1_EEE21_ConstructTransactionC2B8ne180100EPPS1_m, symObjAddr: 0x6230, symBinAddr: 0x100006B50, symSize: 0x40 }
  - { offset: 0x1AEE5, size: 0x8, addend: 0x0, symName: __ZNSt3__117__compressed_pairIPPcRNS_9allocatorIS1_EEE6secondB8ne180100Ev, symObjAddr: 0x62C0, symBinAddr: 0x100006BE0, symSize: 0x20 }
  - { offset: 0x1AF0B, size: 0x8, addend: 0x0, symName: __ZNSt3__122__compressed_pair_elemIRNS_9allocatorIPcEELi1ELb0EE5__getB8ne180100Ev, symObjAddr: 0x62E0, symBinAddr: 0x100006C00, symSize: 0x20 }
  - { offset: 0x1AF36, size: 0x8, addend: 0x0, symName: __ZNKSt3__16ranges11__iter_move4__fnclB8ne180100IRKPPcEEDTclsr3stdE4movedeclsr3stdE7forwardIT_Efp_EEEOS8_, symObjAddr: 0x6300, symBinAddr: 0x100006C20, symSize: 0x20 }
  - { offset: 0x1AF73, size: 0x8, addend: 0x0, symName: __ZNSt3__114__split_bufferIPcRNS_9allocatorIS1_EEE21_ConstructTransactionD2B8ne180100Ev, symObjAddr: 0x6320, symBinAddr: 0x100006C40, symSize: 0x20 }
  - { offset: 0x1AF9D, size: 0x8, addend: 0x0, symName: __ZNKRSt3__113move_iteratorIPPcE4baseB8ne180100Ev, symObjAddr: 0x63B0, symBinAddr: 0x100006CD0, symSize: 0x10 }
  - { offset: 0x1AFC3, size: 0x8, addend: 0x0, symName: __ZNSt3__113move_iteratorIPPcEC2B8ne180100ES2_, symObjAddr: 0x63C0, symBinAddr: 0x100006CE0, symSize: 0x20 }
  - { offset: 0x1AFFB, size: 0x8, addend: 0x0, symName: __ZNSt3__19allocatorIcE8allocateB8ne180100Em, symObjAddr: 0x6430, symBinAddr: 0x100006D50, symSize: 0x50 }
  - { offset: 0x1B039, size: 0x8, addend: 0x0, symName: __ZNKSt3__123__move_backward_trivialclB8ne180100IPcS2_Li0EEENS_4pairIPT_PT0_EES5_S5_S7_, symObjAddr: 0x66E0, symBinAddr: 0x100007000, symSize: 0x40 }
  - { offset: 0x1B0A1, size: 0x8, addend: 0x0, symName: __ZNSt3__14pairIPPcS2_EC1B8ne180100IRS2_S5_Li0EEEOT_OT0_, symObjAddr: 0x67C0, symBinAddr: 0x1000070E0, symSize: 0x30 }
  - { offset: 0x1B0FF, size: 0x8, addend: 0x0, symName: __ZNSt3__14pairIPPcS2_EC2B8ne180100IRS2_S5_Li0EEEOT_OT0_, symObjAddr: 0x67F0, symBinAddr: 0x100007110, symSize: 0x30 }
  - { offset: 0x1B167, size: 0x8, addend: 0x0, symName: __ZNKSt3__16__lessIvvEclB8ne180100ImmEEbRKT_RKT0_, symObjAddr: 0x6870, symBinAddr: 0x100007190, symSize: 0x30 }
  - { offset: 0x1B1BB, size: 0x8, addend: 0x0, symName: __ZNSt3__114__split_bufferIPcRNS_9allocatorIS1_EEEC2EmmS4_, symObjAddr: 0x68A0, symBinAddr: 0x1000071C0, symSize: 0xD0 }
  - { offset: 0x1B22E, size: 0x8, addend: 0x0, symName: __ZNSt3__117__compressed_pairIPPcRNS_9allocatorIS1_EEEC1B8ne180100IDnS5_EEOT_OT0_, symObjAddr: 0x6970, symBinAddr: 0x100007290, symSize: 0x30 }
  - { offset: 0x1B286, size: 0x8, addend: 0x0, symName: __ZNSt3__117__compressed_pairIPPcRNS_9allocatorIS1_EEEC2B8ne180100IDnS5_EEOT_OT0_, symObjAddr: 0x69E0, symBinAddr: 0x100007300, symSize: 0x40 }
  - { offset: 0x1B2DE, size: 0x8, addend: 0x0, symName: __ZNSt3__122__compressed_pair_elemIRNS_9allocatorIPcEELi1ELb0EEC2B8ne180100IS4_vEEOT_, symObjAddr: 0x6A20, symBinAddr: 0x100007340, symSize: 0x20 }
  - { offset: 0x1B320, size: 0x8, addend: 0x0, symName: __ZNSt3__19allocatorIPcE8allocateB8ne180100Em, symObjAddr: 0x6A40, symBinAddr: 0x100007360, symSize: 0x50 }
  - { offset: 0x1B35F, size: 0x8, addend: 0x0, symName: __ZNSt3__116allocator_traitsINS_9allocatorIPcEEE8max_sizeB8ne180100IS3_vvEEmRKS3_, symObjAddr: 0x6A90, symBinAddr: 0x1000073B0, symSize: 0x20 }
  - { offset: 0x1B38B, size: 0x8, addend: 0x0, symName: __ZNSt3__122__allocator_destructorINS_9allocatorIcEEEC2B8ne180100ERS2_m, symObjAddr: 0x6AB0, symBinAddr: 0x1000073D0, symSize: 0x30 }
  - { offset: 0x1B3D1, size: 0x8, addend: 0x0, symName: __ZNSt3__110unique_ptrIPcNS_22__allocator_destructorINS_9allocatorIcEEEEEC2B8ne180100ILb1EvEES1_NS_16__dependent_typeINS_27__unique_ptr_deleter_sfinaeIS5_EEXT_EE20__good_rval_ref_typeE, symObjAddr: 0x6AE0, symBinAddr: 0x100007400, symSize: 0x40 }
  - { offset: 0x1B422, size: 0x8, addend: 0x0, symName: __ZNSt3__117__compressed_pairIPcNS_22__allocator_destructorINS_9allocatorIcEEEEEC1B8ne180100IRS1_S5_EEOT_OT0_, symObjAddr: 0x6B20, symBinAddr: 0x100007440, symSize: 0x30 }
  - { offset: 0x1B47A, size: 0x8, addend: 0x0, symName: __ZNSt3__117__compressed_pairIPcNS_22__allocator_destructorINS_9allocatorIcEEEEEC2B8ne180100IRS1_S5_EEOT_OT0_, symObjAddr: 0x6B50, symBinAddr: 0x100007470, symSize: 0x40 }
  - { offset: 0x1B4D2, size: 0x8, addend: 0x0, symName: __ZNSt3__122__compressed_pair_elemIPcLi0ELb0EEC2B8ne180100IRS1_vEEOT_, symObjAddr: 0x6B90, symBinAddr: 0x1000074B0, symSize: 0x20 }
  - { offset: 0x1B514, size: 0x8, addend: 0x0, symName: __ZNSt3__122__compressed_pair_elemINS_22__allocator_destructorINS_9allocatorIcEEEELi1ELb0EEC2B8ne180100IS4_vEEOT_, symObjAddr: 0x6BB0, symBinAddr: 0x1000074D0, symSize: 0x30 }
  - { offset: 0x1B556, size: 0x8, addend: 0x0, symName: __ZNKSt3__117__compressed_pairIPcNS_22__allocator_destructorINS_9allocatorIcEEEEE5firstB8ne180100Ev, symObjAddr: 0x6BE0, symBinAddr: 0x100007500, symSize: 0x20 }
  - { offset: 0x1B57C, size: 0x8, addend: 0x0, symName: __ZNKSt3__122__compressed_pair_elemIPcLi0ELb0EE5__getB8ne180100Ev, symObjAddr: 0x6C00, symBinAddr: 0x100007520, symSize: 0x10 }
  - { offset: 0x1B5A2, size: 0x8, addend: 0x0, symName: __ZNSt3__117__compressed_pairIPcNS_22__allocator_destructorINS_9allocatorIcEEEEE5firstB8ne180100Ev, symObjAddr: 0x6C10, symBinAddr: 0x100007530, symSize: 0x20 }
  - { offset: 0x1B5C8, size: 0x8, addend: 0x0, symName: __ZNSt3__122__compressed_pair_elemIPcLi0ELb0EE5__getB8ne180100Ev, symObjAddr: 0x6C30, symBinAddr: 0x100007550, symSize: 0x10 }
  - { offset: 0x1B5EE, size: 0x8, addend: 0x0, symName: __ZNSt3__117__compressed_pairIPPcNS_9allocatorIS1_EEE5firstB8ne180100Ev, symObjAddr: 0x6C40, symBinAddr: 0x100007560, symSize: 0x20 }
  - { offset: 0x1B614, size: 0x8, addend: 0x0, symName: __ZNSt3__122__compressed_pair_elemIPPcLi0ELb0EE5__getB8ne180100Ev, symObjAddr: 0x6C60, symBinAddr: 0x100007580, symSize: 0x10 }
  - { offset: 0x1B63A, size: 0x8, addend: 0x0, symName: __ZNSt3__117__compressed_pairIPPcRNS_9allocatorIS1_EEE5firstB8ne180100Ev, symObjAddr: 0x6C70, symBinAddr: 0x100007590, symSize: 0x20 }
  - { offset: 0x1B660, size: 0x8, addend: 0x0, symName: __ZNSt3__110unique_ptrIPcNS_22__allocator_destructorINS_9allocatorIcEEEEED2B8ne180100Ev, symObjAddr: 0x6C90, symBinAddr: 0x1000075B0, symSize: 0x20 }
  - { offset: 0x1B68A, size: 0x8, addend: 0x0, symName: __ZNSt3__110unique_ptrIPcNS_22__allocator_destructorINS_9allocatorIcEEEEE5resetB8ne180100ES1_, symObjAddr: 0x6CB0, symBinAddr: 0x1000075D0, symSize: 0x70 }
  - { offset: 0x1B6CE, size: 0x8, addend: 0x0, symName: __ZNSt3__117__compressed_pairIPcNS_22__allocator_destructorINS_9allocatorIcEEEEE6secondB8ne180100Ev, symObjAddr: 0x6D20, symBinAddr: 0x100007640, symSize: 0x20 }
  - { offset: 0x1B6F4, size: 0x8, addend: 0x0, symName: __ZNSt3__122__allocator_destructorINS_9allocatorIcEEEclB8ne180100EPc, symObjAddr: 0x6D40, symBinAddr: 0x100007660, symSize: 0x30 }
  - { offset: 0x1B728, size: 0x8, addend: 0x0, symName: __ZNSt3__122__compressed_pair_elemINS_22__allocator_destructorINS_9allocatorIcEEEELi1ELb0EE5__getB8ne180100Ev, symObjAddr: 0x6D70, symBinAddr: 0x100007690, symSize: 0x10 }
  - { offset: 0x1B74E, size: 0x8, addend: 0x0, symName: __ZNSt3__114__split_bufferIPcRNS_9allocatorIS1_EEED2Ev, symObjAddr: 0x6D80, symBinAddr: 0x1000076A0, symSize: 0x70 }
  - { offset: 0x1B77A, size: 0x8, addend: 0x0, symName: __ZNSt3__114__split_bufferIPcRNS_9allocatorIS1_EEE5clearB8ne180100Ev, symObjAddr: 0x6DF0, symBinAddr: 0x100007710, symSize: 0x20 }
  - { offset: 0x1B7A0, size: 0x8, addend: 0x0, symName: __ZNKSt3__114__split_bufferIPcRNS_9allocatorIS1_EEE8capacityB8ne180100Ev, symObjAddr: 0x6E10, symBinAddr: 0x100007730, symSize: 0x30 }
  - { offset: 0x1B7C6, size: 0x8, addend: 0x0, symName: __ZNSt3__114__split_bufferIPcRNS_9allocatorIS1_EEE17__destruct_at_endB8ne180100EPS1_, symObjAddr: 0x6E40, symBinAddr: 0x100007760, symSize: 0x30 }
  - { offset: 0x1B7FA, size: 0x8, addend: 0x0, symName: __ZNSt3__114__split_bufferIPcRNS_9allocatorIS1_EEE17__destruct_at_endB8ne180100EPS1_NS_17integral_constantIbLb0EEE, symObjAddr: 0x6E70, symBinAddr: 0x100007790, symSize: 0x80 }
  - { offset: 0x1B83A, size: 0x8, addend: 0x0, symName: __ZNKSt3__114__split_bufferIPcRNS_9allocatorIS1_EEE9__end_capB8ne180100Ev, symObjAddr: 0x6EF0, symBinAddr: 0x100007810, symSize: 0x20 }
  - { offset: 0x1B860, size: 0x8, addend: 0x0, symName: __ZNKSt3__117__compressed_pairIPPcRNS_9allocatorIS1_EEE5firstB8ne180100Ev, symObjAddr: 0x6F10, symBinAddr: 0x100007830, symSize: 0x20 }
...
